
cute-boot:     file format elf32-littlearm
cute-boot
architecture: arm, flags 0x00000012:
EXEC_P, HAS_SYMS
start address 0x40010000

Program Header:
    LOAD off    0x00000060 vaddr 0x40010000 paddr 0x40010000 align 2**4
         filesz 0x00002164 memsz 0x00002164 flags rwx
private flags = 5000200: [Version5 EABI] [soft-float ABI]

Sections:
Idx Name          Size      VMA       LMA       File off  Algn
  0 .text         000006f4  40010000  40010000  00000060  2**4
                  CONTENTS, ALLOC, LOAD, CODE
  1 .cuteOS       00001731  400106f4  400106f4  00000754  2**0
                  CONTENTS, ALLOC, LOAD, DATA
  2 .task0        0000018c  40011e28  40011e28  00001e88  2**0
                  CONTENTS, ALLOC, LOAD, DATA
  3 .task1        000001b0  40011fb4  40011fb4  00002014  2**0
                  CONTENTS, ALLOC, LOAD, DATA
  4 .ARM.attributes 00000027  00000000  00000000  000021c4  2**0
                  CONTENTS, READONLY
Contents of section .text:
 40010000 040000ea efbeadde efbeadde efbeadde  ................
 40010010 18000140 40000140 d310a0e3 01f029e1  ...@@..@......).
 40010020 0c0000eb d50000eb 0e0000eb d20000eb  ................
 40010030 370100eb 0fe0a0e1 9cf59fe5 feffffea  7...............
 40010040 feffffea 00000fe1 1f00c0e3 d30080e3  ................
 40010050 00f029e1 0ef0a0e1 80059fe5 0010a0e3  ..).............
 40010060 001080e5 0ef0a0e1 74059fe5 0110a0e3  ........t.......
 40010070 001080e5 6c059fe5 6c159fe5 001480e5  ....l...l.......
 40010080 0111a0e3 081880e5 0111e0e3 101880e5  ................
 40010090 0110a0e3 001880e5 4105a0e3 4c159fe5  ........A...L...
 400100a0 1c1080e5 48159fe5 441080e5 0126a0e3  ....H...D....&..
 400100b0 012052e2 fdffff1a 38159fe5 1c1080e5  . R.....8.......
 400100c0 28159fe5 1c1080e5 2c159fe5 181080e5  (.......,.......
 400100d0 28159fe5 181080e5 10159fe5 1c1080e5  (...............
 400100e0 1c159fe5 181080e5 0010a0e3 201080e5  ............ ...
 400100f0 10159fe5 001080e5 0c159fe5 041080e5  ................
 40010100 08159fe5 081080e5 04159fe5 0c1080e5  ................
 40010110 ff14a0e3 141080e5 bb10a0e3 301080e5  ............0...
 40010120 f0149fe5 341080e5 ec149fe5 381080e5  ....4.......8...
 40010130 e8149fe5 3c1080e5 0714a0e3 101080e5  ....<...........
 40010140 0126a0e3 012052e2 fdffff1a 0218a0e3  .&... R.........
 40010150 101080e5 0318a0e3 101080e5 c0149fe5  ................
 40010160 101080e5 ca1fa0e3 101080e5 0126a0e3  .............&..
 40010170 012052e2 fdffff1a 0a14a0e3 101080e5  . R.............
 40010180 0126a0e3 012052e2 fdffff1a 7116a0e3  .&... R.....q...
 40010190 101080e5 0126a0e3 012052e2 fdffff1a  .....&... R.....
 400101a0 1218a0e3 101080e5 1318a0e3 101080e5  ................
 400101b0 70149fe5 101080e5 6c149fe5 101080e5  p.......l.......
 400101c0 0126a0e3 012052e2 fdffff1a a116a0e3  .&... R.........
 400101d0 101080e5 0126a0e3 012052e2 fdffff1a  .....&... R.....
 400101e0 10149fe5 1c1080e5 00149fe5 1c1080e5  ................
 400101f0 0126a0e3 012052e2 fdffff1a 2c049fe5  .&... R.....,...
 40010200 e8139fe5 1c1080e5 e4139fe5 441080e5  ............D...
 40010210 0126a0e3 012052e2 fdffff1a d4139fe5  .&... R.........
 40010220 1c1080e5 c4139fe5 1c1080e5 c8139fe5  ................
 40010230 181080e5 c4139fe5 181080e5 ac139fe5  ................
 40010240 1c1080e5 b8139fe5 181080e5 0010a0e3  ................
 40010250 201080e5 ac139fe5 001080e5 a8139fe5   ...............
 40010260 041080e5 a4139fe5 081080e5 a0139fe5  ................
 40010270 0c1080e5 ff14a0e3 141080e5 bc10a0e3  ................
 40010280 301080e5 8c139fe5 341080e5 88139fe5  0.......4.......
 40010290 381080e5 84139fe5 3c1080e5 0714a0e3  8.......<.......
 400102a0 101080e5 0126a0e3 012052e2 fdffff1a  .....&... R.....
 400102b0 0218a0e3 101080e5 0318a0e3 101080e5  ................
 400102c0 5c139fe5 101080e5 ca1fa0e3 101080e5  \...............
 400102d0 0126a0e3 012052e2 fdffff1a 0a14a0e3  .&... R.........
 400102e0 101080e5 0126a0e3 012052e2 fdffff1a  .....&... R.....
 400102f0 7116a0e3 101080e5 0126a0e3 012052e2  q........&... R.
 40010300 fdffff1a 1218a0e3 101080e5 1318a0e3  ................
 40010310 101080e5 0c139fe5 101080e5 08139fe5  ................
 40010320 101080e5 0126a0e3 012052e2 fdffff1a  .....&... R.....
 40010330 a116a0e3 101080e5 0126a0e3 012052e2  .........&... R.
 40010340 fdffff1a ac129fe5 1c1080e5 9c129fe5  ................
 40010350 1c1080e5 0126a0e3 012052e2 fdffff1a  .....&... R.....
 40010360 4105a0e3 c8129fe5 001080e5 bc029fe5  A...............
 40010370 bc129fe5 001080e5 0ef0a0e1 0ef0a0e1  ................
 40010380 b0029fe5 0010a0e3 ac229fe5 021080e7  ........."......
 40010390 0118a0e3 011051e2 fdffff1a 9c129fe5  ......Q.........
 400103a0 9c229fe5 021080e7 0310a0e3 94229fe5  ."..........."..
 400103b0 021080e7 0118a0e3 8c229fe5 021080e7  ........."......
 400103c0 0118a0e3 011051e2 fdffff1a 7c129fe5  ......Q.....|...
 400103d0 7c229fe5 021080e7 78129fe5 78229fe5  |"......x...x"..
 400103e0 021080e7 0112a0e3 70229fe5 021080e7  ........p"......
 400103f0 0010a0e3 68229fe5 021080e7 0118a0e3  ....h"..........
 40010400 011051e2 fdffff1a 58129fe5 58229fe5  ..Q.....X...X"..
 40010410 021080e7 0010a0e3 422ca0e3 021080e7  ........B,......
 40010420 0118a0e3 011051e2 fdffff1a 1310a0e3  ......Q.........
 40010430 452ca0e3 021080e7 0010a0e3 822ca0e3  E,...........,..
 40010440 021080e7 0118a0e3 011051e2 fdffff1a  ..........Q.....
 40010450 1310a0e3 852ca0e3 021080e7 0c129fe5  .....,..........
 40010460 0529a0e3 021080e7 00129fe5 00229fe5  .)..........."..
 40010470 021080e7 f4119fe5 f8219fe5 021080e7  .........!......
 40010480 e8119fe5 f0219fe5 021080e7 3211a0e3  .....!......2...
 40010490 e8219fe5 021080e7 e4119fe5 e4219fe5  .!...........!..
 400104a0 021080e7 1c10a0e3 dc219fe5 021080e7  .........!......
 400104b0 d8119fe5 d8219fe5 021080e7 0010a0e3  .....!..........
 400104c0 d0219fe5 021080e7 cc119fe5 cc219fe5  .!...........!..
 400104d0 021080e7 c8119fe5 c8219fe5 021080e7  .........!......
 400104e0 c4119fe5 c4219fe5 021080e7 0318a0e3  .....!..........
 400104f0 011051e2 fdffff1a b4119fe5 38219fe5  ..Q.........8!..
 40010500 021080e7 0118a0e3 011051e2 fdffff1a  ..........Q.....
 40010510 0ef0a0e1 4505a0e3 98119fe5 001080e5  ....E...........
 40010520 94019fe5 94119fe5 001080e5 04019fe5  ................
 40010530 8c119fe5 8c219fe5 021080e7 88119fe5  .....!..........
 40010540 88219fe5 021080e7 4e05a0e3 80119fe5  .!......N.......
 40010550 081080e5 0310a0e3 001080e5 74119fe5  ............t...
 40010560 041080e5 3510a0e3 281080e5 0310a0e3  ....5...(.......
 40010570 2c1080e5 0ef0a0e1 50009fe5 50109fe5  ,.......P...P...
 40010580 50209fe5 043090e4 043081e4 020050e1  P ...0...0....P.
 40010590 fbffffba 40019fe5 40119fe5 40219fe5  ....@...@...@!..
 400105a0 043090e4 043081e4 020050e1 fbffffba  .0...0....P.....
 400105b0 30019fe5 30119fe5 30219fe5 043090e4  0...0...0!...0..
 400105c0 043081e4 020050e1 fbffffba 00f09fe5  .0....P.........
 400105d0 f4060140 00001040 281e0140 78050140  ...@...@(..@x..@
 400105e0 00000610 50030110 00006010 07150020  ....P.....`.... 
 400105f0 860000e0 035785e3 8e0000e0 08101071  .....W.........q
 40010600 0a101071 0b101071 1a30ff0f 40263100  ...q...q.0..@&1.
 40010610 2313e020 2313e040 4f654640 06054046  #.. #..@OeF@..@F
 40010620 3c0a0052 02000100 02001100 28031000  <..R........(...
 40010630 00004110 3a30ff0f 00000310 00420100  ..A.:0.......B..
 40010640 30371301 00450100 04450100 00020100  07...E...E......
 40010650 13111113 00050100 00010101 04050100  ................
 40010660 10c20000 14c20000 73540000 10c50000  ........sT......
 40010670 201c0000 08400100 10c00000 20c00000   ....@...... ...
 40010680 04410100 0106fa80 00410100 0c410100  .A.......A...A..
 40010690 0106c880 08410100 14c10000 02033080  .....A........0.
 400106a0 10c10000 00040011 24c10000 02033580  ........$.....5.
 400106b0 20c10000 01010000 22222222 20004011   ......."""" .@.
 400106c0 22222200 66666600 50c20000 77777700  """.fff.P...www.
 400106d0 50c50000 11010000 c5030000 281e0140  P...........(..@
 400106e0 00002040 b41f0140 b41f0140 00003040  .. @...@...@..0@
 400106f0 64210140                             d!.@            
Contents of section .cuteOS:
 400106f4 0d0000ea 14f09fe5 14f09fe5 14f09fe5  ................
 40010704 14f09fe5 14f09fe5 14f09fe5 14f09fe5  ................
 40010714 08050000 1c050000 0c050000 10050000  ................
 40010724 14050000 68050000 18050000 a00000eb  ....h...........
 40010734 d3f021e3 0106a0e3 04d040e2 d2f021e3  ..!.......@...!.
 40010744 01da40e2 dff021e3 04d09fe5 d3f021e3  ..@...!.......!.
 40010754 00f01fe5 00804000 6c000000 00482de9  ......@.l....H-.
 40010764 04b08de2 28d04de2 0030a0e3 0c300be5  ....(.M..0...0..
 40010774 9c0601e3 000040e3 d40000eb b80601e3  ......@.........
 40010784 000040e3 d10000eb d80601e3 000040e3  ..@...........@.
 40010794 ce0000eb 0f30a0e1 10300be5 10301be5  .....0...0...0..
 400107a4 14300be5 0d30a0e1 18300be5 18301be5  .0...0...0...0..
 400107b4 1c300be5 f80601e3 000040e3 c30000eb  .0........@.....
 400107c4 6c3000e3 003040e3 0300a0e1 ff0000eb  l0...0@.........
 400107d4 000701e3 000040e3 bc0000eb 1c001be5  ......@.........
 400107e4 fa0000eb 080701e3 000040e3 b70000eb  ..........@.....
 400107f4 14001be5 f50000eb 110ba0e3 100040e3  ..............@.
 40010804 201404e3 101040e3 1a20a0e3 202044e3   .....@.. ..  D.
 40010814 2d0200eb 120ba0e3 100040e3 201804e3  -.........@. ...
 40010824 101040e3 1a20a0e3 302044e3 260200eb  ..@.. ..0 D.&...
 40010834 130ba0e3 100040e3 201c04e3 101040e3  ......@. .....@.
 40010844 1a20a0e3 402044e3 1f0200eb 0230a0e3  . ..@ D......0..
 40010854 08300be5 260000ea 08301be5 413e83e2  .0..&....0..A>..
 40010864 023083e2 0335a0e1 0310a0e1 08301be5  .0...5.......0..
 40010874 0335a0e1 0320a0e1 183804e3 103040e3  .5... ...8...0@.
 40010884 033082e0 0100a0e1 0310a0e1 1a20a0e3  .0........... ..
 40010894 302044e3 0c0200eb 08301be5 0335a0e1  0 D......0...5..
 400108a4 0320a0e1 183804e3 103040e3 033082e0  . ...8...0@..0..
 400108b4 0310a0e1 08301be5 0335a0e1 413983e2  .....0...5..A9..
 400108c4 823e83e2 0320a0e1 08301be5 8336a0e1  .>... ...0...6..
 400108d4 693183e2 c13983e2 0100a0e1 0210a0e1  i1...9..........
 400108e4 0320a0e1 f80100eb 08301be5 013083e2  . .......0...0..
 400108f4 08300be5 08301be5 0f0053e3 d5ffffda  .0...0....S.....
 40010904 ed0100eb 1000a0e3 100040e3 711404e3  ..........@.q...
 40010914 001044e3 f10100eb 0800a0e3 100040e3  ..D...........@.
 40010924 711c04e3 001044e3 ec0100eb ed0100eb  q.....D.........
 40010934 1d0100eb b30100eb 100701e3 000040e3  ..............@.
 40010944 620000eb 0236a0e3 0020a0e3 002083e5  b....6... ... ..
 40010954 0430a0e3 203040e3 0120a0e3 002083e5  .0.. 0@.. ... ..
 40010964 0830a0e3 203040e3 20300be5 20001be5  .0.. 0@. 0.. ...
 40010974 e50300eb 0135a0e3 24300be5 0239a0e3  .....5..$0...9..
 40010984 403040e3 28300be5 2c301be5 24201be5  @0@.(0..,0..$ ..
 40010994 28101be5 04d041e2 0000a0e3 00304fe1  (.....A......0O.
 400109a4 ff30c3e3 5f3083e3 03f061e1 02f0b0e1  .0.._0....a.....
 400109b4 feffffea 0101a0e3 051a80e2 0020a0e3  ............. ..
 400109c4 042080e4 010050e1 fcffffba 98009fe5  . ....P.........
 400109d4 011b80e2 94209fe5 042080e4 010050e1  ..... ... ....P.
 400109e4 012a82b2 fbffffba 0101a0e3 80209fe5  .*........... ..
 400109f4 002080e5 010a80e2 040080e2 002080e5  . ........... ..
 40010a04 64109fe5 010b41e2 68209fe5 042080e4  d.....A.h ... ..
 40010a14 010050e1 012682b2 fbffffba 0101a0e3  ..P..&..........
 40010a24 040080e2 50209fe5 002080e5 0101a0e3  ....P ... ......
 40010a34 100f02ee 4000a0e3 100f03ee 0000a0e3  ....@...........
 40010a44 170f07ee 170f08ee 100f11ee 230cc0e3  ............#...
 40010a54 8700c0e3 020080e3 010a80e3 040080e3  ................
 40010a64 010080e3 100f01ee 0ef0a0e1 00400040  .............@.@
 40010a74 1a001040 61400040 6a040010 6a040040  ...@a@.@j...j..@
 40010a84 04b02de5 00b08de2 14d04de2 0030a0e1  ..-.......M..0..
 40010a94 0d304be5 0030a0e3 80334fe3 08300be5  .0K..0...3O..0..
 40010aa4 0000a0e1 08301be5 103093e5 023003e2  .....0...0...0..
 40010ab4 000053e3 faffff0a 08301be5 0d205be5  ..S......0... [.
 40010ac4 2020c3e5 00d04be2 04b09de4 1eff2fe1    ....K......./.
 40010ad4 00482de9 04b08de2 08d04de2 08000be5  .H-.......M.....
 40010ae4 050000ea 08301be5 012083e2 08200be5  .....0... ... ..
 40010af4 0030d3e5 0300a0e1 e0ffffeb 08301be5  .0...........0..
 40010b04 0030d3e5 000053e3 f5ffff1a 04d04be2  .0....S.......K.
 40010b14 0088bde8 00482de9 04b08de2 20d04de2  .....H-..... .M.
 40010b24 20000be5 3030a0e3 18304be5 7830a0e3   ...00...0K.x0..
 40010b34 17304be5 0730a0e3 0c300be5 190000ea  .0K..0...0......
 40010b44 0c301be5 0331a0e1 20201be5 3233a0e1  .0...1..  ..23..
 40010b54 7330efe6 0f3003e2 05304be5 05305be5  s0...0...0K..0[.
 40010b64 090053e3 0300009a 05305be5 573083e2  ..S......0[.W0..
 40010b74 05304be5 020000ea 05305be5 303083e2  .0K......0[.00..
 40010b84 05304be5 0c301be5 093063e2 04204be2  .0K..0...0c.. K.
 40010b94 033082e0 05205be5 142043e5 0c301be5  .0... [.. C..0..
 40010ba4 013043e2 0c300be5 0c301be5 000053e3  .0C..0...0....S.
 40010bb4 e2ffffaa 0030a0e3 0e304be5 18304be2  .....0...0K..0K.
 40010bc4 0300a0e1 c1ffffeb 04d04be2 0088bde8  ..........K.....
 40010bd4 00482de9 04b08de2 08d04de2 08000be5  .H-.......M.....
 40010be4 08001be5 caffffeb 0a00a0e3 a3ffffeb  ................
 40010bf4 04d04be2 0088bde8 feffffea feffffea  ..K.............
 40010c04 feffffea feffffea feffffea 84d09fe5  ................
 40010c14 00d09de5 08d08de2 ff7fcde8 00004fe1  ..............O.
 40010c24 ff7f0de9 01d6a0e3 04a01ee5 ffa4cae3  ................
 40010c34 0a00a0e1 0110a0e1 180000eb 58d09fe5  ............X...
 40010c44 00d09de5 08d08de2 01401de9 00f06fe1  .........@....o.
 40010c54 ff7fdde8 0ef0b0e1 04e04ee2 34d09fe5  ..........N.4...
 40010c64 00d09de5 08d08de2 ff7fcde8 00004fe1  ..............O.
 40010c74 01400de9 ffdaa0e3 750000eb 18d09fe5  .@......u.......
 40010c84 00d09de5 08d08de2 01401de9 00f06fe1  .........@....o.
 40010c94 ff7fdde8 0ef0b0e1 94200000 9c200000  ......... ... ..
 40010ca4 00482de9 04b08de2 18d04de2 18000be5  .H-.......M.....
 40010cb4 1c100be5 18301be5 800053e3 1600001a  .....0....S.....
 40010cc4 1c301be5 08300be5 943002e3 003040e3  .0...0...0...0@.
 40010cd4 002093e5 343701e3 003040e3 001093e5  . ..47...0@.....
 40010ce4 08301be5 033081e0 603082e5 943002e3  .0...0..`0...0..
 40010cf4 003040e3 003093e5 a00002e3 000040e3  .0@..0........@.
 40010d04 0310a0e1 720300eb 943002e3 003040e3  ....r....0...0@.
 40010d14 003093e5 0120a0e3 542083e5 18301be5  .0... ..T ...0..
 40010d24 7f0053e3 0500001a 1c301be5 0c300be5  ..S......0...0..
 40010d34 5e00a0e3 51ffffeb 0c001be5 e10300eb  ^...Q...........
 40010d44 18301be5 7e0053e3 0300001a 1c301be5  .0..~.S......0..
 40010d54 10300be5 10001be5 eb0300eb 943002e3  .0...........0..
 40010d64 003040e3 003093e5 543093e5 010053e3  .0@..0..T0....S.
 40010d74 0500001a 943002e3 003040e3 003093e5  .....0...0@..0..
 40010d84 0020a0e3 542083e5 260200eb 04d04be2  . ..T ..&.....K.
 40010d94 0088bde8 00482de9 04b08de2 200701e3  .....H-..... ...
 40010da4 000040e3 49ffffeb 0088bde8 04b02de5  ..@.I.........-.
 40010db4 00b08de2 0cd04de2 0030a0e3 08300be5  ......M..0...0..
 40010dc4 080000ea 403701e3 003040e3 08101be5  ....@7...0@.....
 40010dd4 a42600e3 002040e3 012183e7 08301be5  .&... @..!...0..
 40010de4 013083e2 08300be5 08301be5 5f0053e3  .0...0...0.._.S.
 40010df4 f3ffffda 483800e3 49304fe3 012100e3  ....H8..I0O..!..
 40010e04 012140e3 002083e5 423fa0e3 49304fe3  .!@.. ..B?..I0O.
 40010e14 022ca0e3 002083e5 0430a0e3 48304fe3  .,... ...0..H0O.
 40010e24 ff20a0e3 002083e5 0030a0e3 48304fe3  . ... ...0..H0O.
 40010e34 0320a0e3 002083e5 0030a0e3 49304fe3  . ... ...0..I0O.
 40010e44 0120a0e3 002083e5 00d04be2 04b09de4  . ... ....K.....
 40010e54 1eff2fe1 00482de9 04b08de2 10d04de2  ../..H-.......M.
 40010e64 0c30a0e3 48304fe3 003093e5 08300be5  .0..H0O..0...0..
 40010e74 08301be5 5330e9e7 0c300be5 343701e3  .0..S0...0..47..
 40010e84 003040e3 003093e5 012083e2 343701e3  .0@..0... ..47..
 40010e94 003040e3 002083e5 943002e3 003040e3  .0@.. ...0...0@.
 40010ea4 003093e5 4c2093e5 012042e2 4c2083e5  .0..L ... B.L ..
 40010eb4 943002e3 003040e3 003093e5 4c3093e5  .0...0@..0..L0..
 40010ec4 000053e3 1500001a 943002e3 003040e3  ..S......0...0@.
 40010ed4 002093e5 943002e3 003040e3 003093e5  . ...0...0@..0..
 40010ee4 503093e5 4c3082e5 8c3002e3 003040e3  P0..L0...0...0@.
 40010ef4 002093e5 943002e3 003040e3 003093e5  . ...0...0@..0..
 40010f04 0200a0e1 0310a0e1 9b0200eb 943002e3  .............0..
 40010f14 003040e3 003093e5 0120a0e3 542083e5  .0@..0... ..T ..
 40010f24 403701e3 003040e3 0c201be5 023193e7  @7...0@.. ...1..
 40010f34 33ff2fe1 1030a0e3 48304fe3 08201be5  3./..0..H0O.. ..
 40010f44 5220e9e7 002083e5 343701e3 003040e3  R ... ..47...0@.
 40010f54 003093e5 a00002e3 000040e3 0310a0e1  .0........@.....
 40010f64 240300eb 10000be5 10301be5 000053e3  $........0....S.
 40010f74 1600000a 10301be5 010073e3 1300000a  .....0....s.....
 40010f84 903002e3 003040e3 003093e5 0300a0e1  .0...0@..0......
 40010f94 10101be5 780200eb 943002e3 003040e3  ....x....0...0@.
 40010fa4 003093e5 582093e5 10301be5 583093e5  .0..X ...0..X0..
 40010fb4 030052e1 0400002a 943002e3 003040e3  ..R....*.0...0@.
 40010fc4 003093e5 0120a0e3 542083e5 ddffffea  .0... ..T ......
 40010fd4 943002e3 003040e3 003093e5 543093e5  .0...0@..0..T0..
 40010fe4 010053e3 0500001a 943002e3 003040e3  ..S......0...0@.
 40010ff4 003093e5 0020a0e3 542083e5 890100eb  .0... ..T ......
 40011004 04d04be2 0088bde8 04b02de5 00b08de2  ..K.......-.....
 40011014 0030a0e3 9d334fe3 032ba0e3 002083e5  .0...3O..+... ..
 40011024 3c30a0e3 9d334fe3 d82301e3 002083e5  <0...3O..#... ..
 40011034 0830a0e3 9d334fe3 0526a0e3 002083e5  .0...3O..&... ..
 40011044 4430a0e3 9d334fe3 1020a0e3 002083e5  D0...3O.. ... ..
 40011054 403701e3 003040e3 802900e3 002040e3  @7...0@..)... @.
 40011064 242183e5 00d04be2 04b09de4 1eff2fe1  $!....K......./.
 40011074 04b02de5 00b08de2 c03801e3 003040e3  ..-......8...0@.
 40011084 003093e5 012083e2 c03801e3 003040e3  .0... ...8...0@.
 40011094 002083e5 4430a0e3 9d334fe3 4420a0e3  . ..D0...3O.D ..
 400110a4 9d234fe3 002092e5 022c82e3 002083e5  .#O.. ...,... ..
 400110b4 00d04be2 04b09de4 1eff2fe1 0000a0e3  ..K......./.....
 400110c4 170f07ee 170f08ee 0ef0a0e1 042080e4  ............. ..
 400110d4 010050e1 012a82b2 fbffffba 0ef0a0e1  ..P..*..........
 400110e4 001080e5 0ef0a0e1 00482de9 04b08de2  .........H-.....
 400110f4 08d04de2 943002e3 003040e3 4c2a01e3  ..M..0...0@.L*..
 40011104 002040e3 002083e5 943002e3 003040e3  . @.. ...0...0@.
 40011114 002093e5 9c3002e3 003040e3 002083e5  . ...0...0@.. ..
 40011124 4c3a01e3 003040e3 0020a0e3 082083e5  L:...0@.. ... ..
 40011134 4c2a01e3 002040e3 0239a0e3 403040e3  L*... @..9..@0@.
 40011144 3c3082e5 4c3a01e3 003040e3 0125a0e3  <0..L:...0@..%..
 40011154 042083e5 4c3a01e3 003040e3 5f20a0e3  . ..L:...0@._ ..
 40011164 002083e5 4c3a01e3 003040e3 0020a0e3  . ..L:...0@.. ..
 40011174 482083e5 4c3a01e3 003040e3 0a20a0e3  H ..L:...0@.. ..
 40011184 4c2083e5 4c3a01e3 003040e3 0a20a0e3  L ..L:...0@.. ..
 40011194 502083e5 4c3a01e3 003040e3 0020a0e3  P ..L:...0@.. ..
 400111a4 542083e5 4c3a01e3 003040e3 0f20a0e3  T ..L:...0@.. ..
 400111b4 582083e5 4c3a01e3 003040e3 0020a0e3  X ..L:...0@.. ..
 400111c4 5c2083e5 4c3a01e3 003040e3 0020a0e3  \ ..L:...0@.. ..
 400111d4 602083e5 4c3a01e3 003040e3 0120a0e3  ` ..L:...0@.. ..
 400111e4 6c2083e5 4c2a01e3 002040e3 0239a0e3  l ..L*... @..9..
 400111f4 403040e3 a03082e5 4c3a01e3 003040e3  @0@..0..L:...0@.
 40011204 0125a0e3 682083e5 4c3a01e3 003040e3  .%..h ..L:...0@.
 40011214 5f20a0e3 642083e5 4c3a01e3 003040e3  _ ..d ..L:...0@.
 40011224 0120a0e3 ac2083e5 4c3a01e3 003040e3  . ... ..L:...0@.
 40011234 0a20a0e3 b02083e5 4c3a01e3 003040e3  . ... ..L:...0@.
 40011244 0a20a0e3 b42083e5 4c3a01e3 003040e3  . ... ..L:...0@.
 40011254 0020a0e3 b82083e5 4c3a01e3 003040e3  . ... ..L:...0@.
 40011264 0020a0e3 bc2083e5 4c3a01e3 003040e3  . ... ..L:...0@.
 40011274 0020a0e3 c02083e5 4c3a01e3 003040e3  . ... ..L:...0@.
 40011284 0020a0e3 c42083e5 4c3a01e3 003040e3  . ... ..L:...0@.
 40011294 0220a0e3 d02083e5 4c2a01e3 002040e3  . ... ..L*... @.
 400112a4 0239a0e3 403040e3 043182e5 4c3a01e3  .9..@0@..1..L:..
 400112b4 003040e3 0125a0e3 cc2083e5 4c3a01e3  .0@..%... ..L:..
 400112c4 003040e3 5f20a0e3 c82083e5 4c3a01e3  .0@._ ... ..L:..
 400112d4 003040e3 0220a0e3 102183e5 4c3a01e3  .0@.. ...!..L:..
 400112e4 003040e3 0a20a0e3 142183e5 4c3a01e3  .0@.. ...!..L:..
 400112f4 003040e3 0a20a0e3 182183e5 4c3a01e3  .0@.. ...!..L:..
 40011304 003040e3 0020a0e3 1c2183e5 4c3a01e3  .0@.. ...!..L:..
 40011314 003040e3 0020a0e3 202183e5 4c3a01e3  .0@.. .. !..L:..
 40011324 003040e3 0020a0e3 242183e5 4c3a01e3  .0@.. ..$!..L:..
 40011334 003040e3 0020a0e3 282183e5 0330a0e3  .0@.. ..(!...0..
 40011344 08300be5 880000ea 08101be5 4c2a01e3  .0..........L*..
 40011354 002040e3 08301be5 0331a0e1 0301a0e1  . @..0...1......
 40011364 003083e0 0301a0e1 003083e0 033082e0  .0.......0...0..
 40011374 083083e2 001083e5 4c2a01e3 002040e3  .0......L*... @.
 40011384 08301be5 0331a0e1 0311a0e1 013083e0  .0...1.......0..
 40011394 0311a0e1 013083e0 033082e0 3c2083e2  .....0...0..< ..
 400113a4 0239a0e3 403040e3 003082e5 4c2a01e3  .9..@0@..0..L*..
 400113b4 002040e3 08301be5 0331a0e1 0311a0e1  . @..0...1......
 400113c4 013083e0 0311a0e1 013083e0 033082e0  .0.......0...0..
 400113d4 043083e2 0125a0e3 002083e5 4c2a01e3  .0...%... ..L*..
 400113e4 002040e3 08301be5 0331a0e1 0311a0e1  . @..0...1......
 400113f4 013083e0 0311a0e1 013083e0 033082e0  .0.......0...0..
 40011404 5f20a0e3 002083e5 08101be5 4c2a01e3  _ ... ......L*..
 40011414 002040e3 08301be5 0331a0e1 0301a0e1  . @..0...1......
 40011424 003083e0 0301a0e1 003083e0 033082e0  .0.......0...0..
 40011434 483083e2 001083e5 08101be5 4c2a01e3  H0..........L*..
 40011444 002040e3 08301be5 0331a0e1 0301a0e1  . @..0...1......
 40011454 003083e0 0301a0e1 003083e0 033082e0  .0.......0...0..
 40011464 483083e2 041083e5 08101be5 4c2a01e3  H0..........L*..
 40011474 002040e3 08301be5 0331a0e1 0301a0e1  . @..0...1......
 40011484 003083e0 0301a0e1 003083e0 033082e0  .0.......0...0..
 40011494 503083e2 001083e5 4c2a01e3 002040e3  P0......L*... @.
 400114a4 08301be5 0331a0e1 0311a0e1 013083e0  .0...1.......0..
 400114b4 0311a0e1 013083e0 033082e0 503083e2  .....0...0..P0..
 400114c4 0020a0e3 042083e5 08301be5 013043e2  . ... ...0...0C.
 400114d4 0300a0e1 4c2a01e3 002040e3 08301be5  ....L*... @..0..
 400114e4 0331a0e1 0311a0e1 013083e0 0311a0e1  .1.......0......
 400114f4 013083e0 033082e0 583083e2 000083e5  .0...0..X0......
 40011504 4c2a01e3 002040e3 08301be5 0331a0e1  L*... @..0...1..
 40011514 0311a0e1 013083e0 0311a0e1 013083e0  .....0.......0..
 40011524 033082e0 583083e2 0020a0e3 042083e5  .0..X0... ... ..
 40011534 4c2a01e3 002040e3 08301be5 0331a0e1  L*... @..0...1..
 40011544 0311a0e1 013083e0 0311a0e1 013083e0  .....0.......0..
 40011554 033082e0 603083e2 0020a0e3 002083e5  .0..`0... ... ..
 40011564 08301be5 013083e2 08300be5 08301be5  .0...0...0...0..
 40011574 0f0053e3 73ffffda c40801e3 000040e3  ..S.s.........@.
 40011584 e10000eb 98009fe5 df0000eb 903002e3  .............0..
 40011594 003040e3 c42801e3 002040e3 002083e5  .0@..(... @.. ..
 400115a4 8c3002e3 003040e3 74209fe5 002083e5  .0...0@.t ... ..
 400115b4 0130a0e3 08300be5 110000ea 903002e3  .0...0.......0..
 400115c4 003040e3 001093e5 08301be5 0331a0e1  .0@......0...1..
 400115d4 0321a0e1 023083e0 0321a0e1 023083e0  .!...0...!...0..
 400115e4 4c2a01e3 002040e3 023083e0 0100a0e1  L*... @..0......
 400115f4 0310a0e1 e00000eb 08301be5 013083e2  .........0...0..
 40011604 08300be5 08301be5 0f0053e3 eaffffda  .0...0....S.....
 40011614 a00002e3 000040e3 1d0100eb 04d04be2  ......@.......K.
 40011624 0088bde8 88190000 00482de9 04b08de2  .........H-.....
 40011634 08d04de2 903002e3 003040e3 003093e5  ..M..0...0@..0..
 40011644 0300a0e1 e40000eb 0020a0e1 943002e3  ......... ...0..
 40011654 003040e3 002083e5 943002e3 003040e3  .0@.. ...0...0@.
 40011664 003093e5 000053e3 1600001a 903002e3  .0....S......0..
 40011674 003040e3 003093e5 08300be5 8c3002e3  .0@..0...0...0..
 40011684 003040e3 002093e5 903002e3 003040e3  .0@.. ...0...0@.
 40011694 002083e5 8c3002e3 003040e3 08201be5  . ...0...0@.. ..
 400116a4 002083e5 903002e3 003040e3 003093e5  . ...0...0@..0..
 400116b4 0300a0e1 c80000eb 0020a0e1 943002e3  ......... ...0..
 400116c4 003040e3 002083e5 943002e3 003040e3  .0@.. ...0...0@.
 400116d4 002093e5 9c3002e3 003040e3 002083e5  . ...0...0@.. ..
 400116e4 75feffeb 943002e3 003040e3 003093e5  u....0...0@..0..
 400116f4 0300a0e1 35fdffeb 943002e3 003040e3  ....5....0...0@.
 40011704 003093e5 483093e5 0300a0e1 2ffdffeb  .0..H0....../...
 40011714 943002e3 003040e3 003093e5 483093e5  .0...0@..0..H0..
 40011724 000053e3 0500001a 1000a0e3 100040e3  ..S...........@.
 40011734 711404e3 001044e3 68feffeb 170000ea  q.....D.h.......
 40011744 943002e3 003040e3 003093e5 483093e5  .0...0@..0..H0..
 40011754 010053e3 0500001a 1000a0e3 100040e3  ..S...........@.
 40011764 711804e3 001044e3 5cfeffeb 0b0000ea  q.....D.\.......
 40011774 943002e3 003040e3 003093e5 483093e5  .0...0@..0..H0..
 40011784 013683e2 123083e2 0335a0e1 713083e3  .6...0...5..q0..
 40011794 1000a0e3 100040e3 0310a0e1 4ffeffeb  ......@.....O...
 400117a4 04d04be2 0088bde8 04b02de5 00b08de2  ..K.......-.....
 400117b4 0cd04de2 08000be5 08301be5 0020a0e3  ..M......0... ..
 400117c4 002083e5 08301be5 0020a0e3 042083e5  . ...0... ... ..
 400117d4 08301be5 0020a0e3 082083e5 00d04be2  .0... ... ....K.
 400117e4 04b09de4 1eff2fe1 04b02de5 00b08de2  ....../...-.....
 400117f4 0cd04de2 08000be5 0c100be5 08301be5  ..M..........0..
 40011804 083093e5 000053e3 0600001a 08301be5  .0....S......0..
 40011814 0c201be5 002083e5 08301be5 0c201be5  . ... ...0... ..
 40011824 042083e5 060000ea 08301be5 043093e5  . .......0...0..
 40011834 0c201be5 5c2083e5 08301be5 0c201be5  . ..\ ...0... ..
 40011844 042083e5 08301be5 083093e5 012083e2  . ...0...0... ..
 40011854 08301be5 082083e5 00d04be2 04b09de4  .0... ....K.....
 40011864 1eff2fe1 04b02de5 00b08de2 14d04de2  ../...-.......M.
 40011874 10000be5 10301be5 083093e5 000053e3  .....0...0....S.
 40011884 0100001a 0030a0e3 1b0000ea 10301be5  .....0.......0..
 40011894 083093e5 010053e3 0900001a 10301be5  .0....S......0..
 400118a4 003093e5 08300be5 10301be5 0020a0e3  .0...0...0... ..
 400118b4 002083e5 10301be5 0020a0e3 042083e5  . ...0... ... ..
 400118c4 070000ea 10301be5 003093e5 08300be5  .....0...0...0..
 400118d4 10301be5 003093e5 5c2093e5 10301be5  .0...0..\ ...0..
 400118e4 002083e5 10301be5 083093e5 012043e2  . ...0...0... C.
 400118f4 10301be5 082083e5 08301be5 0300a0e1  .0... ...0......
 40011904 00d04be2 04b09de4 1eff2fe1 00482de9  ..K......./..H-.
 40011914 04b08de2 10d04de2 10000be5 0030a0e3  ......M......0..
 40011924 08300be5 0c0000ea 08301be5 0320a0e1  .0.......0... ..
 40011934 0231a0e1 0320a0e1 0231a0e1 033062e0  .1... ...1...0b.
 40011944 10201be5 033082e0 0300a0e1 95ffffeb  . ...0..........
 40011954 08301be5 013083e2 08300be5 08301be5  .0...0...0...0..
 40011964 0f0053e3 efffffda 10301be5 0020a0e3  ..S......0... ..
 40011974 c02083e5 04d04be2 0088bde8 00482de9  . ....K......H-.
 40011984 04b08de2 08d04de2 08000be5 0c100be5  ......M.........
 40011994 0c301be5 583093e5 0320a0e1 0231a0e1  .0..X0... ...1..
 400119a4 0320a0e1 0231a0e1 033062e0 08201be5  . ...1...0b.. ..
 400119b4 033082e0 0300a0e1 0c101be5 89ffffeb  .0..............
 400119c4 08301be5 c03093e5 012083e2 08301be5  .0...0... ...0..
 400119d4 c02083e5 04d04be2 0088bde8 00482de9  . ....K......H-.
 400119e4 04b08de2 10d04de2 10000be5 10301be5  ......M......0..
 400119f4 c03093e5 000053e3 0100001a 0030a0e3  .0....S......0..
 40011a04 200000ea 0030a0e3 08300be5 110000ea   ....0...0......
 40011a14 08301be5 0320a0e1 0231a0e1 0320a0e1  .0... ...1... ..
 40011a24 0231a0e1 033062e0 10201be5 033082e0  .1...0b.. ...0..
 40011a34 0300a0e1 8affffeb 0c000be5 0c301be5  .............0..
 40011a44 000053e3 0000000a 050000ea 08301be5  ..S..........0..
 40011a54 013083e2 08300be5 08301be5 0f0053e3  .0...0...0....S.
 40011a64 eaffffda 10301be5 c03093e5 012043e2  .....0...0... C.
 40011a74 10301be5 c02083e5 0c301be5 0020a0e3  .0... ...0... ..
 40011a84 5c2083e5 0c301be5 0300a0e1 04d04be2  \ ...0........K.
 40011a94 0088bde8 04b02de5 00b08de2 0cd04de2  ......-.......M.
 40011aa4 08000be5 08301be5 0020a0e3 002083e5  .....0... ... ..
 40011ab4 08301be5 0020a0e3 042083e5 08301be5  .0... ... ...0..
 40011ac4 0020e0e3 082083e5 00d04be2 04b09de4  . ... ....K.....
 40011ad4 1eff2fe1 04b02de5 00b08de2 14d04de2  ../...-.......M.
 40011ae4 10000be5 14100be5 10301be5 043093e5  .........0...0..
 40011af4 000053e3 0700001a 10301be5 14201be5  ..S......0... ..
 40011b04 002083e5 14301be5 602093e5 10301be5  . ...0..` ...0..
 40011b14 082083e5 340000ea 14301be5 602093e5  . ..4....0..` ..
 40011b24 10301be5 083093e5 030052e1 0b00002a  .0...0....R....*
 40011b34 10301be5 002093e5 14301be5 5c2083e5  .0... ...0..\ ..
 40011b44 10301be5 14201be5 002083e5 14301be5  .0... ... ...0..
 40011b54 602093e5 10301be5 082083e5 220000ea  ` ...0... .."...
 40011b64 10301be5 003093e5 08300be5 08301be5  .0...0...0...0..
 40011b74 5c3093e5 000053e3 0300001a 08301be5  \0....S......0..
 40011b84 14201be5 5c2083e5 120000ea 14301be5  . ..\ .......0..
 40011b94 602093e5 08301be5 5c3093e5 603093e5  ` ...0..\0..`0..
 40011ba4 030052e1 0700008a 08301be5 5c2093e5  ..R......0..\ ..
 40011bb4 14301be5 5c2083e5 08301be5 14201be5  .0..\ ...0... ..
 40011bc4 5c2083e5 030000ea 08301be5 5c3093e5  \ .......0..\0..
 40011bd4 08300be5 e4ffffea 10301be5 043093e5  .0.......0...0..
 40011be4 012083e2 10301be5 042083e5 00d04be2  . ...0... ....K.
 40011bf4 04b09de4 1eff2fe1 04b02de5 00b08de2  ....../...-.....
 40011c04 14d04de2 10000be5 14100be5 0030a0e3  ..M..........0..
 40011c14 08300be5 10301be5 043093e5 000053e3  .0...0...0....S.
 40011c24 0100001a 0030e0e3 220000ea 10301be5  .....0.."....0..
 40011c34 082093e5 14301be5 030052e1 1c00008a  . ...0....R.....
 40011c44 10301be5 003093e5 08300be5 10301be5  .0...0...0...0..
 40011c54 003093e5 5c2093e5 10301be5 002083e5  .0..\ ...0... ..
 40011c64 10301be5 003093e5 000053e3 0500000a  .0...0....S.....
 40011c74 10301be5 003093e5 602093e5 10301be5  .0...0..` ...0..
 40011c84 082083e5 020000ea 10301be5 0020e0e3  . .......0... ..
 40011c94 082083e5 10301be5 043093e5 012043e2  . ...0...0... C.
 40011ca4 10301be5 042083e5 08301be5 0020a0e3  .0... ...0... ..
 40011cb4 5c2083e5 08301be5 0300a0e1 00d04be2  \ ...0........K.
 40011cc4 04b09de4 1eff2fe1 00482de9 04b08de2  ....../..H-.....
 40011cd4 08d04de2 08000be5 943002e3 003040e3  ..M......0...0@.
 40011ce4 003093e5 08001be5 0310a0e1 22ffffeb  .0.........."...
 40011cf4 943002e3 003040e3 003093e5 0120a0e3  .0...0@..0... ..
 40011d04 542083e5 04d04be2 0088bde8 00482de9  T ....K......H-.
 40011d14 04b08de2 10d04de2 10000be5 10001be5  ......M.........
 40011d24 2dffffeb 08000be5 08301be5 000053e3  -........0....S.
 40011d34 0000001a 120000ea 903002e3 003040e3  .........0...0@.
 40011d44 003093e5 0300a0e1 08101be5 0affffeb  .0..............
 40011d54 943002e3 003040e3 003093e5 582093e5  .0...0@..0..X ..
 40011d64 08301be5 583093e5 030052e1 0400002a  .0..X0....R....*
 40011d74 943002e3 003040e3 003093e5 0120a0e3  .0...0@..0... ..
 40011d84 542083e5 04d04be2 0088bde8 49414d52  T ....K.....IAMR
 40011d94 4f4f5420 4f532050 524f4a45 43542032  OOT OS PROJECT 2
 40011da4 30313621 210a0000 53355043 32313020  016!!...S5PC210 
 40011db4 4d4d5520 456e6162 6c652056 65726973  MMU Enable Veris
 40011dc4 6f6e2121 0a000000 43686170 74657220  on!!....Chapter 
 40011dd4 31305f31 203a2053 4c454550 4f4e2c57  10_1 : SLEEPON,W
 40011de4 414b4555 500a0000 6b6d6169 6e203a00  AKEUP...kmain :.
 40011df4 5350203a 00000000 5043203a 00000000  SP :....PC :....
 40011e04 4a756d70 20546f20 5461736b 300a0000  Jump To Task0...
 40011e14 456d7074 79204861 6e646c65 7221210a  Empty Handler!!.
 40011e24 00                                   .               
Contents of section .task0:
 40011e28 04b02de5 00b08de2 0cd04de2 08000be5  ..-.......M.....
 40011e38 feffffea 04b02de5 00b08de2 14d04de2  ......-.......M.
 40011e48 0030a0e1 0d304be5 0030a0e3 80334fe3  .0...0K..0...3O.
 40011e58 08300be5 0000a0e1 08301be5 103093e5  .0.......0...0..
 40011e68 023003e2 000053e3 faffff0a 08301be5  .0....S......0..
 40011e78 0d205be5 2020c3e5 00d04be2 04b09de4  . [.  ....K.....
 40011e88 1eff2fe1 00482de9 04b08de2 08d04de2  ../..H-.......M.
 40011e98 08000be5 050000ea 08301be5 012083e2  .........0... ..
 40011ea8 08200be5 0030d3e5 0300a0e1 e0ffffeb  . ...0..........
 40011eb8 08301be5 0030d3e5 000053e3 f5ffff1a  .0...0....S.....
 40011ec8 04d04be2 0088bde8 00482de9 04b08de2  ..K......H-.....
 40011ed8 20d04de2 20000be5 3030a0e3 18304be5   .M. ...00...0K.
 40011ee8 7830a0e3 17304be5 0730a0e3 0c300be5  x0...0K..0...0..
 40011ef8 190000ea 0c301be5 0331a0e1 20201be5  .....0...1..  ..
 40011f08 3233a0e1 7330efe6 0f3003e2 05304be5  23..s0...0...0K.
 40011f18 05305be5 090053e3 0300009a 05305be5  .0[...S......0[.
 40011f28 573083e2 05304be5 020000ea 05305be5  W0...0K......0[.
 40011f38 303083e2 05304be5 0c301be5 093063e2  00...0K..0...0c.
 40011f48 04204be2 033082e0 05205be5 142043e5  . K..0... [.. C.
 40011f58 0c301be5 013043e2 0c300be5 0c301be5  .0...0C..0...0..
 40011f68 000053e3 e2ffffaa 0030a0e3 0e304be5  ..S......0...0K.
 40011f78 18304be2 0300a0e1 c1ffffeb 04d04be2  .0K...........K.
 40011f88 0088bde8 00482de9 04b08de2 08d04de2  .....H-.......M.
 40011f98 08000be5 08001be5 caffffeb 0a00a0e3  ................
 40011fa8 a3ffffeb 04d04be2 0088bde8           ......K.....    
Contents of section .task1:
 40011fb4 00482de9 04b08de2 10d04de2 10000be5  .H-.......M.....
 40011fc4 0030a0e3 08300be5 0830a0e3 203040e3  .0...0...0.. 0@.
 40011fd4 0c300be5 4000a0e3 020000eb 10001be5  .0..@...........
 40011fe4 540000eb feffffea 04b02de5 00b08de2  T.........-.....
 40011ff4 14d04de2 0030a0e1 0d304be5 0030a0e3  ..M..0...0K..0..
 40012004 80334fe3 08300be5 0000a0e1 08301be5  .3O..0.......0..
 40012014 103093e5 023003e2 000053e3 faffff0a  .0...0....S.....
 40012024 08301be5 0d205be5 2020c3e5 00d04be2  .0... [.  ....K.
 40012034 04b09de4 1eff2fe1 00482de9 04b08de2  ....../..H-.....
 40012044 08d04de2 08000be5 050000ea 08301be5  ..M..........0..
 40012054 012083e2 08200be5 0030d3e5 0300a0e1  . ... ...0......
 40012064 e0ffffeb 08301be5 0030d3e5 000053e3  .....0...0....S.
 40012074 f5ffff1a 04d04be2 0088bde8 00482de9  ......K......H-.
 40012084 04b08de2 20d04de2 20000be5 3030a0e3  .... .M. ...00..
 40012094 18304be5 7830a0e3 17304be5 0730a0e3  .0K.x0...0K..0..
 400120a4 0c300be5 190000ea 0c301be5 0331a0e1  .0.......0...1..
 400120b4 20201be5 3233a0e1 7330efe6 0f3003e2    ..23..s0...0..
 400120c4 05304be5 05305be5 090053e3 0300009a  .0K..0[...S.....
 400120d4 05305be5 573083e2 05304be5 020000ea  .0[.W0...0K.....
 400120e4 05305be5 303083e2 05304be5 0c301be5  .0[.00...0K..0..
 400120f4 093063e2 04204be2 033082e0 05205be5  .0c.. K..0... [.
 40012104 142043e5 0c301be5 013043e2 0c300be5  . C..0...0C..0..
 40012114 0c301be5 000053e3 e2ffffaa 0030a0e3  .0....S......0..
 40012124 0e304be5 18304be2 0300a0e1 c1ffffeb  .0K..0K.........
 40012134 04d04be2 0088bde8 00482de9 04b08de2  ..K......H-.....
 40012144 08d04de2 08000be5 08001be5 caffffeb  ..M.............
 40012154 0a00a0e3 a3ffffeb 04d04be2 0088bde8  ..........K.....
Contents of section .ARM.attributes:
 0000 41260000 00616561 62690001 1c000000  A&...aeabi......
 0010 05436f72 7465782d 41390006 0a074108  .Cortex-A9....A.
 0020 0109022a 014401                      ...*.D.         

Disassembly of section .text:

40010000 <_start>:
40010000:	ea000004 	b	40010018 <reset>
40010004:	deadbeef 	cdple	14, 10, cr11, cr13, cr15, {7}
40010008:	deadbeef 	cdple	14, 10, cr11, cr13, cr15, {7}
4001000c:	deadbeef 	cdple	14, 10, cr11, cr13, cr15, {7}

40010010 <reset_addr>:
40010010:	40010018 	andmi	r0, r1, r8, lsl r0

40010014 <irq_addr>:
40010014:	40010040 	andmi	r0, r1, r0, asr #32

40010018 <reset>:
40010018:	e3a010d3 	mov	r1, #211	; 0xd3
4001001c:	e129f001 	msr	CPSR_fc, r1
40010020:	eb00000c 	bl	40010058 <init_wdt>
40010024:	eb0000d5 	bl	40010380 <init_clock>
40010028:	eb00000e 	bl	40010068 <init_memory>
4001002c:	eb0000d2 	bl	4001037c <init_gpio>
40010030:	eb000137 	bl	40010514 <init_uart>
40010034:	e1a0e00f 	mov	lr, pc
40010038:	e59ff59c 	ldr	pc, [pc, #1436]	; 400105dc <_OS_END+0x4>
4001003c:	eafffffe 	b	4001003c <reset+0x24>

40010040 <irq>:
40010040:	eafffffe 	b	40010040 <irq>

40010044 <init_cpu>:
40010044:	e10f0000 	mrs	r0, CPSR
40010048:	e3c0001f 	bic	r0, r0, #31
4001004c:	e38000d3 	orr	r0, r0, #211	; 0xd3
40010050:	e129f000 	msr	CPSR_fc, r0
40010054:	e1a0f00e 	mov	pc, lr

40010058 <init_wdt>:
40010058:	e59f0580 	ldr	r0, [pc, #1408]	; 400105e0 <_OS_END+0x8>
4001005c:	e3a01000 	mov	r1, #0
40010060:	e5801000 	str	r1, [r0]
40010064:	e1a0f00e 	mov	pc, lr

40010068 <init_memory>:
40010068:	e59f0574 	ldr	r0, [pc, #1396]	; 400105e4 <_OS_END+0xc>
4001006c:	e3a01001 	mov	r1, #1
40010070:	e5801000 	str	r1, [r0]
40010074:	e59f056c 	ldr	r0, [pc, #1388]	; 400105e8 <_OS_END+0x10>
40010078:	e59f156c 	ldr	r1, [pc, #1388]	; 400105ec <_OS_END+0x14>
4001007c:	e5801400 	str	r1, [r0, #1024]	; 0x400
40010080:	e3a01101 	mov	r1, #1073741824	; 0x40000000
40010084:	e5801808 	str	r1, [r0, #2056]	; 0x808
40010088:	e3e01101 	mvn	r1, #1073741824	; 0x40000000
4001008c:	e5801810 	str	r1, [r0, #2064]	; 0x810
40010090:	e3a01001 	mov	r1, #1
40010094:	e5801800 	str	r1, [r0, #2048]	; 0x800
40010098:	e3a00541 	mov	r0, #272629760	; 0x10400000
4001009c:	e59f154c 	ldr	r1, [pc, #1356]	; 400105f0 <_OS_END+0x18>
400100a0:	e580101c 	str	r1, [r0, #28]
400100a4:	e59f1548 	ldr	r1, [pc, #1352]	; 400105f4 <_OS_END+0x1c>
400100a8:	e5801044 	str	r1, [r0, #68]	; 0x44
400100ac:	e3a02601 	mov	r2, #1048576	; 0x100000
400100b0:	e2522001 	subs	r2, r2, #1
400100b4:	1afffffd 	bne	400100b0 <init_memory+0x48>
400100b8:	e59f1538 	ldr	r1, [pc, #1336]	; 400105f8 <_OS_END+0x20>
400100bc:	e580101c 	str	r1, [r0, #28]
400100c0:	e59f1528 	ldr	r1, [pc, #1320]	; 400105f0 <_OS_END+0x18>
400100c4:	e580101c 	str	r1, [r0, #28]
400100c8:	e59f152c 	ldr	r1, [pc, #1324]	; 400105fc <_OS_END+0x24>
400100cc:	e5801018 	str	r1, [r0, #24]
400100d0:	e59f1528 	ldr	r1, [pc, #1320]	; 40010600 <_OS_END+0x28>
400100d4:	e5801018 	str	r1, [r0, #24]
400100d8:	e59f1510 	ldr	r1, [pc, #1296]	; 400105f0 <_OS_END+0x18>
400100dc:	e580101c 	str	r1, [r0, #28]
400100e0:	e59f151c 	ldr	r1, [pc, #1308]	; 40010604 <_OS_END+0x2c>
400100e4:	e5801018 	str	r1, [r0, #24]
400100e8:	e3a01000 	mov	r1, #0
400100ec:	e5801020 	str	r1, [r0, #32]
400100f0:	e59f1510 	ldr	r1, [pc, #1296]	; 40010608 <_OS_END+0x30>
400100f4:	e5801000 	str	r1, [r0]
400100f8:	e59f150c 	ldr	r1, [pc, #1292]	; 4001060c <_OS_END+0x34>
400100fc:	e5801004 	str	r1, [r0, #4]
40010100:	e59f1508 	ldr	r1, [pc, #1288]	; 40010610 <_OS_END+0x38>
40010104:	e5801008 	str	r1, [r0, #8]
40010108:	e59f1504 	ldr	r1, [pc, #1284]	; 40010614 <_OS_END+0x3c>
4001010c:	e580100c 	str	r1, [r0, #12]
40010110:	e3a014ff 	mov	r1, #-16777216	; 0xff000000
40010114:	e5801014 	str	r1, [r0, #20]
40010118:	e3a010bb 	mov	r1, #187	; 0xbb
4001011c:	e5801030 	str	r1, [r0, #48]	; 0x30
40010120:	e59f14f0 	ldr	r1, [pc, #1264]	; 40010618 <_OS_END+0x40>
40010124:	e5801034 	str	r1, [r0, #52]	; 0x34
40010128:	e59f14ec 	ldr	r1, [pc, #1260]	; 4001061c <_OS_END+0x44>
4001012c:	e5801038 	str	r1, [r0, #56]	; 0x38
40010130:	e59f14e8 	ldr	r1, [pc, #1256]	; 40010620 <_OS_END+0x48>
40010134:	e580103c 	str	r1, [r0, #60]	; 0x3c
40010138:	e3a01407 	mov	r1, #117440512	; 0x7000000
4001013c:	e5801010 	str	r1, [r0, #16]
40010140:	e3a02601 	mov	r2, #1048576	; 0x100000
40010144:	e2522001 	subs	r2, r2, #1
40010148:	1afffffd 	bne	40010144 <init_memory+0xdc>
4001014c:	e3a01802 	mov	r1, #131072	; 0x20000
40010150:	e5801010 	str	r1, [r0, #16]
40010154:	e3a01803 	mov	r1, #196608	; 0x30000
40010158:	e5801010 	str	r1, [r0, #16]
4001015c:	e59f14c0 	ldr	r1, [pc, #1216]	; 40010624 <_OS_END+0x4c>
40010160:	e5801010 	str	r1, [r0, #16]
40010164:	e3a01fca 	mov	r1, #808	; 0x328
40010168:	e5801010 	str	r1, [r0, #16]
4001016c:	e3a02601 	mov	r2, #1048576	; 0x100000
40010170:	e2522001 	subs	r2, r2, #1
40010174:	1afffffd 	bne	40010170 <init_memory+0x108>
40010178:	e3a0140a 	mov	r1, #167772160	; 0xa000000
4001017c:	e5801010 	str	r1, [r0, #16]
40010180:	e3a02601 	mov	r2, #1048576	; 0x100000
40010184:	e2522001 	subs	r2, r2, #1
40010188:	1afffffd 	bne	40010184 <init_memory+0x11c>
4001018c:	e3a01671 	mov	r1, #118489088	; 0x7100000
40010190:	e5801010 	str	r1, [r0, #16]
40010194:	e3a02601 	mov	r2, #1048576	; 0x100000
40010198:	e2522001 	subs	r2, r2, #1
4001019c:	1afffffd 	bne	40010198 <init_memory+0x130>
400101a0:	e3a01812 	mov	r1, #1179648	; 0x120000
400101a4:	e5801010 	str	r1, [r0, #16]
400101a8:	e3a01813 	mov	r1, #1245184	; 0x130000
400101ac:	e5801010 	str	r1, [r0, #16]
400101b0:	e59f1470 	ldr	r1, [pc, #1136]	; 40010628 <_OS_END+0x50>
400101b4:	e5801010 	str	r1, [r0, #16]
400101b8:	e59f146c 	ldr	r1, [pc, #1132]	; 4001062c <_OS_END+0x54>
400101bc:	e5801010 	str	r1, [r0, #16]
400101c0:	e3a02601 	mov	r2, #1048576	; 0x100000
400101c4:	e2522001 	subs	r2, r2, #1
400101c8:	1afffffd 	bne	400101c4 <init_memory+0x15c>
400101cc:	e3a016a1 	mov	r1, #168820736	; 0xa100000
400101d0:	e5801010 	str	r1, [r0, #16]
400101d4:	e3a02601 	mov	r2, #1048576	; 0x100000
400101d8:	e2522001 	subs	r2, r2, #1
400101dc:	1afffffd 	bne	400101d8 <init_memory+0x170>
400101e0:	e59f1410 	ldr	r1, [pc, #1040]	; 400105f8 <_OS_END+0x20>
400101e4:	e580101c 	str	r1, [r0, #28]
400101e8:	e59f1400 	ldr	r1, [pc, #1024]	; 400105f0 <_OS_END+0x18>
400101ec:	e580101c 	str	r1, [r0, #28]
400101f0:	e3a02601 	mov	r2, #1048576	; 0x100000
400101f4:	e2522001 	subs	r2, r2, #1
400101f8:	1afffffd 	bne	400101f4 <init_memory+0x18c>
400101fc:	e59f042c 	ldr	r0, [pc, #1068]	; 40010630 <_OS_END+0x58>
40010200:	e59f13e8 	ldr	r1, [pc, #1000]	; 400105f0 <_OS_END+0x18>
40010204:	e580101c 	str	r1, [r0, #28]
40010208:	e59f13e4 	ldr	r1, [pc, #996]	; 400105f4 <_OS_END+0x1c>
4001020c:	e5801044 	str	r1, [r0, #68]	; 0x44
40010210:	e3a02601 	mov	r2, #1048576	; 0x100000
40010214:	e2522001 	subs	r2, r2, #1
40010218:	1afffffd 	bne	40010214 <init_memory+0x1ac>
4001021c:	e59f13d4 	ldr	r1, [pc, #980]	; 400105f8 <_OS_END+0x20>
40010220:	e580101c 	str	r1, [r0, #28]
40010224:	e59f13c4 	ldr	r1, [pc, #964]	; 400105f0 <_OS_END+0x18>
40010228:	e580101c 	str	r1, [r0, #28]
4001022c:	e59f13c8 	ldr	r1, [pc, #968]	; 400105fc <_OS_END+0x24>
40010230:	e5801018 	str	r1, [r0, #24]
40010234:	e59f13c4 	ldr	r1, [pc, #964]	; 40010600 <_OS_END+0x28>
40010238:	e5801018 	str	r1, [r0, #24]
4001023c:	e59f13ac 	ldr	r1, [pc, #940]	; 400105f0 <_OS_END+0x18>
40010240:	e580101c 	str	r1, [r0, #28]
40010244:	e59f13b8 	ldr	r1, [pc, #952]	; 40010604 <_OS_END+0x2c>
40010248:	e5801018 	str	r1, [r0, #24]
4001024c:	e3a01000 	mov	r1, #0
40010250:	e5801020 	str	r1, [r0, #32]
40010254:	e59f13ac 	ldr	r1, [pc, #940]	; 40010608 <_OS_END+0x30>
40010258:	e5801000 	str	r1, [r0]
4001025c:	e59f13a8 	ldr	r1, [pc, #936]	; 4001060c <_OS_END+0x34>
40010260:	e5801004 	str	r1, [r0, #4]
40010264:	e59f13a4 	ldr	r1, [pc, #932]	; 40010610 <_OS_END+0x38>
40010268:	e5801008 	str	r1, [r0, #8]
4001026c:	e59f13a0 	ldr	r1, [pc, #928]	; 40010614 <_OS_END+0x3c>
40010270:	e580100c 	str	r1, [r0, #12]
40010274:	e3a014ff 	mov	r1, #-16777216	; 0xff000000
40010278:	e5801014 	str	r1, [r0, #20]
4001027c:	e3a010bc 	mov	r1, #188	; 0xbc
40010280:	e5801030 	str	r1, [r0, #48]	; 0x30
40010284:	e59f138c 	ldr	r1, [pc, #908]	; 40010618 <_OS_END+0x40>
40010288:	e5801034 	str	r1, [r0, #52]	; 0x34
4001028c:	e59f1388 	ldr	r1, [pc, #904]	; 4001061c <_OS_END+0x44>
40010290:	e5801038 	str	r1, [r0, #56]	; 0x38
40010294:	e59f1384 	ldr	r1, [pc, #900]	; 40010620 <_OS_END+0x48>
40010298:	e580103c 	str	r1, [r0, #60]	; 0x3c
4001029c:	e3a01407 	mov	r1, #117440512	; 0x7000000
400102a0:	e5801010 	str	r1, [r0, #16]
400102a4:	e3a02601 	mov	r2, #1048576	; 0x100000
400102a8:	e2522001 	subs	r2, r2, #1
400102ac:	1afffffd 	bne	400102a8 <init_memory+0x240>
400102b0:	e3a01802 	mov	r1, #131072	; 0x20000
400102b4:	e5801010 	str	r1, [r0, #16]
400102b8:	e3a01803 	mov	r1, #196608	; 0x30000
400102bc:	e5801010 	str	r1, [r0, #16]
400102c0:	e59f135c 	ldr	r1, [pc, #860]	; 40010624 <_OS_END+0x4c>
400102c4:	e5801010 	str	r1, [r0, #16]
400102c8:	e3a01fca 	mov	r1, #808	; 0x328
400102cc:	e5801010 	str	r1, [r0, #16]
400102d0:	e3a02601 	mov	r2, #1048576	; 0x100000
400102d4:	e2522001 	subs	r2, r2, #1
400102d8:	1afffffd 	bne	400102d4 <init_memory+0x26c>
400102dc:	e3a0140a 	mov	r1, #167772160	; 0xa000000
400102e0:	e5801010 	str	r1, [r0, #16]
400102e4:	e3a02601 	mov	r2, #1048576	; 0x100000
400102e8:	e2522001 	subs	r2, r2, #1
400102ec:	1afffffd 	bne	400102e8 <init_memory+0x280>
400102f0:	e3a01671 	mov	r1, #118489088	; 0x7100000
400102f4:	e5801010 	str	r1, [r0, #16]
400102f8:	e3a02601 	mov	r2, #1048576	; 0x100000
400102fc:	e2522001 	subs	r2, r2, #1
40010300:	1afffffd 	bne	400102fc <init_memory+0x294>
40010304:	e3a01812 	mov	r1, #1179648	; 0x120000
40010308:	e5801010 	str	r1, [r0, #16]
4001030c:	e3a01813 	mov	r1, #1245184	; 0x130000
40010310:	e5801010 	str	r1, [r0, #16]
40010314:	e59f130c 	ldr	r1, [pc, #780]	; 40010628 <_OS_END+0x50>
40010318:	e5801010 	str	r1, [r0, #16]
4001031c:	e59f1308 	ldr	r1, [pc, #776]	; 4001062c <_OS_END+0x54>
40010320:	e5801010 	str	r1, [r0, #16]
40010324:	e3a02601 	mov	r2, #1048576	; 0x100000
40010328:	e2522001 	subs	r2, r2, #1
4001032c:	1afffffd 	bne	40010328 <init_memory+0x2c0>
40010330:	e3a016a1 	mov	r1, #168820736	; 0xa100000
40010334:	e5801010 	str	r1, [r0, #16]
40010338:	e3a02601 	mov	r2, #1048576	; 0x100000
4001033c:	e2522001 	subs	r2, r2, #1
40010340:	1afffffd 	bne	4001033c <init_memory+0x2d4>
40010344:	e59f12ac 	ldr	r1, [pc, #684]	; 400105f8 <_OS_END+0x20>
40010348:	e580101c 	str	r1, [r0, #28]
4001034c:	e59f129c 	ldr	r1, [pc, #668]	; 400105f0 <_OS_END+0x18>
40010350:	e580101c 	str	r1, [r0, #28]
40010354:	e3a02601 	mov	r2, #1048576	; 0x100000
40010358:	e2522001 	subs	r2, r2, #1
4001035c:	1afffffd 	bne	40010358 <init_memory+0x2f0>
40010360:	e3a00541 	mov	r0, #272629760	; 0x10400000
40010364:	e59f12c8 	ldr	r1, [pc, #712]	; 40010634 <_OS_END+0x5c>
40010368:	e5801000 	str	r1, [r0]
4001036c:	e59f02bc 	ldr	r0, [pc, #700]	; 40010630 <_OS_END+0x58>
40010370:	e59f12bc 	ldr	r1, [pc, #700]	; 40010634 <_OS_END+0x5c>
40010374:	e5801000 	str	r1, [r0]
40010378:	e1a0f00e 	mov	pc, lr

4001037c <init_gpio>:
4001037c:	e1a0f00e 	mov	pc, lr

40010380 <init_clock>:
40010380:	e59f02b0 	ldr	r0, [pc, #688]	; 40010638 <_OS_END+0x60>
40010384:	e3a01000 	mov	r1, #0
40010388:	e59f22ac 	ldr	r2, [pc, #684]	; 4001063c <_OS_END+0x64>
4001038c:	e7801002 	str	r1, [r0, r2]
40010390:	e3a01801 	mov	r1, #65536	; 0x10000
40010394:	e2511001 	subs	r1, r1, #1
40010398:	1afffffd 	bne	40010394 <init_clock+0x14>
4001039c:	e59f129c 	ldr	r1, [pc, #668]	; 40010640 <_OS_END+0x68>
400103a0:	e59f229c 	ldr	r2, [pc, #668]	; 40010644 <_OS_END+0x6c>
400103a4:	e7801002 	str	r1, [r0, r2]
400103a8:	e3a01003 	mov	r1, #3
400103ac:	e59f2294 	ldr	r2, [pc, #660]	; 40010648 <_OS_END+0x70>
400103b0:	e7801002 	str	r1, [r0, r2]
400103b4:	e3a01801 	mov	r1, #65536	; 0x10000
400103b8:	e59f228c 	ldr	r2, [pc, #652]	; 4001064c <_OS_END+0x74>
400103bc:	e7801002 	str	r1, [r0, r2]
400103c0:	e3a01801 	mov	r1, #65536	; 0x10000
400103c4:	e2511001 	subs	r1, r1, #1
400103c8:	1afffffd 	bne	400103c4 <init_clock+0x44>
400103cc:	e59f127c 	ldr	r1, [pc, #636]	; 40010650 <_OS_END+0x78>
400103d0:	e59f227c 	ldr	r2, [pc, #636]	; 40010654 <_OS_END+0x7c>
400103d4:	e7801002 	str	r1, [r0, r2]
400103d8:	e59f1278 	ldr	r1, [pc, #632]	; 40010658 <_OS_END+0x80>
400103dc:	e59f2278 	ldr	r2, [pc, #632]	; 4001065c <_OS_END+0x84>
400103e0:	e7801002 	str	r1, [r0, r2]
400103e4:	e3a01201 	mov	r1, #268435456	; 0x10000000
400103e8:	e59f2270 	ldr	r2, [pc, #624]	; 40010660 <_OS_END+0x88>
400103ec:	e7801002 	str	r1, [r0, r2]
400103f0:	e3a01000 	mov	r1, #0
400103f4:	e59f2268 	ldr	r2, [pc, #616]	; 40010664 <_OS_END+0x8c>
400103f8:	e7801002 	str	r1, [r0, r2]
400103fc:	e3a01801 	mov	r1, #65536	; 0x10000
40010400:	e2511001 	subs	r1, r1, #1
40010404:	1afffffd 	bne	40010400 <init_clock+0x80>
40010408:	e59f1258 	ldr	r1, [pc, #600]	; 40010668 <_OS_END+0x90>
4001040c:	e59f2258 	ldr	r2, [pc, #600]	; 4001066c <_OS_END+0x94>
40010410:	e7801002 	str	r1, [r0, r2]
40010414:	e3a01000 	mov	r1, #0
40010418:	e3a02c42 	mov	r2, #16896	; 0x4200
4001041c:	e7801002 	str	r1, [r0, r2]
40010420:	e3a01801 	mov	r1, #65536	; 0x10000
40010424:	e2511001 	subs	r1, r1, #1
40010428:	1afffffd 	bne	40010424 <init_clock+0xa4>
4001042c:	e3a01013 	mov	r1, #19
40010430:	e3a02c45 	mov	r2, #17664	; 0x4500
40010434:	e7801002 	str	r1, [r0, r2]
40010438:	e3a01000 	mov	r1, #0
4001043c:	e3a02c82 	mov	r2, #33280	; 0x8200
40010440:	e7801002 	str	r1, [r0, r2]
40010444:	e3a01801 	mov	r1, #65536	; 0x10000
40010448:	e2511001 	subs	r1, r1, #1
4001044c:	1afffffd 	bne	40010448 <init_clock+0xc8>
40010450:	e3a01013 	mov	r1, #19
40010454:	e3a02c85 	mov	r2, #34048	; 0x8500
40010458:	e7801002 	str	r1, [r0, r2]
4001045c:	e59f120c 	ldr	r1, [pc, #524]	; 40010670 <_OS_END+0x98>
40010460:	e3a02905 	mov	r2, #81920	; 0x14000
40010464:	e7801002 	str	r1, [r0, r2]
40010468:	e59f1200 	ldr	r1, [pc, #512]	; 40010670 <_OS_END+0x98>
4001046c:	e59f2200 	ldr	r2, [pc, #512]	; 40010674 <_OS_END+0x9c>
40010470:	e7801002 	str	r1, [r0, r2]
40010474:	e59f11f4 	ldr	r1, [pc, #500]	; 40010670 <_OS_END+0x98>
40010478:	e59f21f8 	ldr	r2, [pc, #504]	; 40010678 <_OS_END+0xa0>
4001047c:	e7801002 	str	r1, [r0, r2]
40010480:	e59f11e8 	ldr	r1, [pc, #488]	; 40010670 <_OS_END+0x98>
40010484:	e59f21f0 	ldr	r2, [pc, #496]	; 4001067c <_OS_END+0xa4>
40010488:	e7801002 	str	r1, [r0, r2]
4001048c:	e3a01132 	mov	r1, #-2147483636	; 0x8000000c
40010490:	e59f21e8 	ldr	r2, [pc, #488]	; 40010680 <_OS_END+0xa8>
40010494:	e7801002 	str	r1, [r0, r2]
40010498:	e59f11e4 	ldr	r1, [pc, #484]	; 40010684 <_OS_END+0xac>
4001049c:	e59f21e4 	ldr	r2, [pc, #484]	; 40010688 <_OS_END+0xb0>
400104a0:	e7801002 	str	r1, [r0, r2]
400104a4:	e3a0101c 	mov	r1, #28
400104a8:	e59f21dc 	ldr	r2, [pc, #476]	; 4001068c <_OS_END+0xb4>
400104ac:	e7801002 	str	r1, [r0, r2]
400104b0:	e59f11d8 	ldr	r1, [pc, #472]	; 40010690 <_OS_END+0xb8>
400104b4:	e59f21d8 	ldr	r2, [pc, #472]	; 40010694 <_OS_END+0xbc>
400104b8:	e7801002 	str	r1, [r0, r2]
400104bc:	e3a01000 	mov	r1, #0
400104c0:	e59f21d0 	ldr	r2, [pc, #464]	; 40010698 <_OS_END+0xc0>
400104c4:	e7801002 	str	r1, [r0, r2]
400104c8:	e59f11cc 	ldr	r1, [pc, #460]	; 4001069c <_OS_END+0xc4>
400104cc:	e59f21cc 	ldr	r2, [pc, #460]	; 400106a0 <_OS_END+0xc8>
400104d0:	e7801002 	str	r1, [r0, r2]
400104d4:	e59f11c8 	ldr	r1, [pc, #456]	; 400106a4 <_OS_END+0xcc>
400104d8:	e59f21c8 	ldr	r2, [pc, #456]	; 400106a8 <_OS_END+0xd0>
400104dc:	e7801002 	str	r1, [r0, r2]
400104e0:	e59f11c4 	ldr	r1, [pc, #452]	; 400106ac <_OS_END+0xd4>
400104e4:	e59f21c4 	ldr	r2, [pc, #452]	; 400106b0 <_OS_END+0xd8>
400104e8:	e7801002 	str	r1, [r0, r2]
400104ec:	e3a01803 	mov	r1, #196608	; 0x30000
400104f0:	e2511001 	subs	r1, r1, #1
400104f4:	1afffffd 	bne	400104f0 <init_clock+0x170>
400104f8:	e59f11b4 	ldr	r1, [pc, #436]	; 400106b4 <_OS_END+0xdc>
400104fc:	e59f2138 	ldr	r2, [pc, #312]	; 4001063c <_OS_END+0x64>
40010500:	e7801002 	str	r1, [r0, r2]
40010504:	e3a01801 	mov	r1, #65536	; 0x10000
40010508:	e2511001 	subs	r1, r1, #1
4001050c:	1afffffd 	bne	40010508 <init_clock+0x188>
40010510:	e1a0f00e 	mov	pc, lr

40010514 <init_uart>:
40010514:	e3a00545 	mov	r0, #289406976	; 0x11400000
40010518:	e59f1198 	ldr	r1, [pc, #408]	; 400106b8 <_OS_END+0xe0>
4001051c:	e5801000 	str	r1, [r0]
40010520:	e59f0194 	ldr	r0, [pc, #404]	; 400106bc <_OS_END+0xe4>
40010524:	e59f1194 	ldr	r1, [pc, #404]	; 400106c0 <_OS_END+0xe8>
40010528:	e5801000 	str	r1, [r0]
4001052c:	e59f0104 	ldr	r0, [pc, #260]	; 40010638 <_OS_END+0x60>
40010530:	e59f118c 	ldr	r1, [pc, #396]	; 400106c4 <_OS_END+0xec>
40010534:	e59f218c 	ldr	r2, [pc, #396]	; 400106c8 <_OS_END+0xf0>
40010538:	e7801002 	str	r1, [r0, r2]
4001053c:	e59f1188 	ldr	r1, [pc, #392]	; 400106cc <_OS_END+0xf4>
40010540:	e59f2188 	ldr	r2, [pc, #392]	; 400106d0 <_OS_END+0xf8>
40010544:	e7801002 	str	r1, [r0, r2]
40010548:	e3a0054e 	mov	r0, #327155712	; 0x13800000
4001054c:	e59f1180 	ldr	r1, [pc, #384]	; 400106d4 <_OS_END+0xfc>
40010550:	e5801008 	str	r1, [r0, #8]
40010554:	e3a01003 	mov	r1, #3
40010558:	e5801000 	str	r1, [r0]
4001055c:	e59f1174 	ldr	r1, [pc, #372]	; 400106d8 <_OS_END+0x100>
40010560:	e5801004 	str	r1, [r0, #4]
40010564:	e3a01035 	mov	r1, #53	; 0x35
40010568:	e5801028 	str	r1, [r0, #40]	; 0x28
4001056c:	e3a01003 	mov	r1, #3
40010570:	e580102c 	str	r1, [r0, #44]	; 0x2c
40010574:	e1a0f00e 	mov	pc, lr

40010578 <osload>:
40010578:	e59f0050 	ldr	r0, [pc, #80]	; 400105d0 <_OS_ROM_BASE>
4001057c:	e59f1050 	ldr	r1, [pc, #80]	; 400105d4 <_OS_RAM_BASE>
40010580:	e59f2050 	ldr	r2, [pc, #80]	; 400105d8 <_OS_END>

40010584 <copy_loop>:
40010584:	e4903004 	ldr	r3, [r0], #4
40010588:	e4813004 	str	r3, [r1], #4
4001058c:	e1500002 	cmp	r0, r2
40010590:	bafffffb 	blt	40010584 <copy_loop>

40010594 <task0load>:
40010594:	e59f0140 	ldr	r0, [pc, #320]	; 400106dc <_OS_END+0x104>
40010598:	e59f1140 	ldr	r1, [pc, #320]	; 400106e0 <_OS_END+0x108>
4001059c:	e59f2140 	ldr	r2, [pc, #320]	; 400106e4 <_OS_END+0x10c>
400105a0:	e4903004 	ldr	r3, [r0], #4
400105a4:	e4813004 	str	r3, [r1], #4
400105a8:	e1500002 	cmp	r0, r2
400105ac:	bafffffb 	blt	400105a0 <task0load+0xc>

400105b0 <task1load>:
400105b0:	e59f0130 	ldr	r0, [pc, #304]	; 400106e8 <_OS_END+0x110>
400105b4:	e59f1130 	ldr	r1, [pc, #304]	; 400106ec <_OS_END+0x114>
400105b8:	e59f2130 	ldr	r2, [pc, #304]	; 400106f0 <_OS_END+0x118>
400105bc:	e4903004 	ldr	r3, [r0], #4
400105c0:	e4813004 	str	r3, [r1], #4
400105c4:	e1500002 	cmp	r0, r2
400105c8:	bafffffb 	blt	400105bc <task1load+0xc>

400105cc <jumpToOS>:
400105cc:	e59ff000 	ldr	pc, [pc]	; 400105d4 <_OS_RAM_BASE>

400105d0 <_OS_ROM_BASE>:
400105d0:	400106f4 	strdmi	r0, [r1], -r4

400105d4 <_OS_RAM_BASE>:
400105d4:	40100000 	andsmi	r0, r0, r0

400105d8 <_OS_END>:
400105d8:	40011e28 	andmi	r1, r1, r8, lsr #28
400105dc:	40010578 	andmi	r0, r1, r8, ror r5
400105e0:	10060000 	andne	r0, r6, r0
400105e4:	10010350 	andne	r0, r1, r0, asr r3
400105e8:	10600000 	rsbne	r0, r0, r0
400105ec:	20001507 	andcs	r1, r0, r7, lsl #10
400105f0:	e0000086 	and	r0, r0, r6, lsl #1
400105f4:	e3855703 	orr	r5, r5, #786432	; 0xc0000
400105f8:	e000008e 	and	r0, r0, lr, lsl #1
400105fc:	71101008 	tstvc	r0, r8
40010600:	7110100a 	tstvc	r0, sl
40010604:	7110100b 	tstvc	r0, fp
40010608:	0fff301a 	svceq	0x00ff301a
4001060c:	00312640 	eorseq	r2, r1, r0, asr #12
40010610:	20e01323 	rsccs	r1, r0, r3, lsr #6
40010614:	40e01323 	rscmi	r1, r0, r3, lsr #6
40010618:	4046654f 	submi	r6, r6, pc, asr #10
4001061c:	46400506 	strbmi	r0, [r0], -r6, lsl #10
40010620:	52000a3c 	andpl	r0, r0, #60, 20	; 0x3c000
40010624:	00010002 	andeq	r0, r1, r2
40010628:	00110002 	andseq	r0, r1, r2
4001062c:	00100328 	andseq	r0, r0, r8, lsr #6
40010630:	10410000 	subne	r0, r1, r0
40010634:	0fff303a 	svceq	0x00ff303a
40010638:	10030000 	andne	r0, r3, r0
4001063c:	00014200 	andeq	r4, r1, r0, lsl #4
40010640:	01133730 	tsteq	r3, r0, lsr r7
40010644:	00014500 	andeq	r4, r1, r0, lsl #10
40010648:	00014504 	andeq	r4, r1, r4, lsl #10
4001064c:	00010200 	andeq	r0, r1, r0, lsl #4
40010650:	13111113 	tstne	r1, #-1073741820	; 0xc0000004
40010654:	00010500 	andeq	r0, r1, r0, lsl #10
40010658:	01010100 	mrseq	r0, (UNDEF: 17)
4001065c:	00010504 	andeq	r0, r1, r4, lsl #10
40010660:	0000c210 	andeq	ip, r0, r0, lsl r2
40010664:	0000c214 	andeq	ip, r0, r4, lsl r2
40010668:	00005473 	andeq	r5, r0, r3, ror r4
4001066c:	0000c510 	andeq	ip, r0, r0, lsl r5
40010670:	00001c20 	andeq	r1, r0, r0, lsr #24
40010674:	00014008 	andeq	r4, r1, r8
40010678:	0000c010 	andeq	ip, r0, r0, lsl r0
4001067c:	0000c020 	andeq	ip, r0, r0, lsr #32
40010680:	00014104 	andeq	r4, r1, r4, lsl #2
40010684:	80fa0601 	rscshi	r0, sl, r1, lsl #12
40010688:	00014100 	andeq	r4, r1, r0, lsl #2
4001068c:	0001410c 	andeq	r4, r1, ip, lsl #2
40010690:	80c80601 	sbchi	r0, r8, r1, lsl #12
40010694:	00014108 	andeq	r4, r1, r8, lsl #2
40010698:	0000c114 	andeq	ip, r0, r4, lsl r1
4001069c:	80300302 	eorshi	r0, r0, r2, lsl #6
400106a0:	0000c110 	andeq	ip, r0, r0, lsl r1
400106a4:	11000400 	tstne	r0, r0, lsl #8
400106a8:	0000c124 	andeq	ip, r0, r4, lsr #2
400106ac:	80350302 	eorshi	r0, r5, r2, lsl #6
400106b0:	0000c120 	andeq	ip, r0, r0, lsr #2
400106b4:	00000101 	andeq	r0, r0, r1, lsl #2
400106b8:	22222222 	eorcs	r2, r2, #536870914	; 0x20000002
400106bc:	11400020 	cmpne	r0, r0, lsr #32
400106c0:	00222222 	eoreq	r2, r2, r2, lsr #4
400106c4:	00666666 	rsbeq	r6, r6, r6, ror #12
400106c8:	0000c250 	andeq	ip, r0, r0, asr r2
400106cc:	00777777 	rsbseq	r7, r7, r7, ror r7
400106d0:	0000c550 	andeq	ip, r0, r0, asr r5
400106d4:	00000111 	andeq	r0, r0, r1, lsl r1
400106d8:	000003c5 	andeq	r0, r0, r5, asr #7
400106dc:	40011e28 	andmi	r1, r1, r8, lsr #28
400106e0:	40200000 	eormi	r0, r0, r0
400106e4:	40011fb4 			; <UNDEFINED> instruction: 0x40011fb4
400106e8:	40011fb4 			; <UNDEFINED> instruction: 0x40011fb4
400106ec:	40300000 	eorsmi	r0, r0, r0
400106f0:	40012164 	andmi	r2, r1, r4, ror #2

Disassembly of section .cuteOS:

400106f4 <__bss_end>:
400106f4:	ea00000d 	b	40010730 <__bss_end+0x3c>
400106f8:	e59ff014 	ldr	pc, [pc, #20]	; 40010714 <__bss_end+0x20>
400106fc:	e59ff014 	ldr	pc, [pc, #20]	; 40010718 <__bss_end+0x24>
40010700:	e59ff014 	ldr	pc, [pc, #20]	; 4001071c <__bss_end+0x28>
40010704:	e59ff014 	ldr	pc, [pc, #20]	; 40010720 <__bss_end+0x2c>
40010708:	e59ff014 	ldr	pc, [pc, #20]	; 40010724 <__bss_end+0x30>
4001070c:	e59ff014 	ldr	pc, [pc, #20]	; 40010728 <__bss_end+0x34>
40010710:	e59ff014 	ldr	pc, [pc, #20]	; 4001072c <__bss_end+0x38>
40010714:	00000508 	andeq	r0, r0, r8, lsl #10
40010718:	0000051c 	andeq	r0, r0, ip, lsl r5
4001071c:	0000050c 	andeq	r0, r0, ip, lsl #10
40010720:	00000510 	andeq	r0, r0, r0, lsl r5
40010724:	00000514 	andeq	r0, r0, r4, lsl r5
40010728:	00000568 	andeq	r0, r0, r8, ror #10
4001072c:	00000518 	andeq	r0, r0, r8, lsl r5
40010730:	eb0000a0 	bl	400109b8 <__bss_end+0x2c4>
40010734:	e321f0d3 	msr	CPSR_c, #211	; 0xd3
40010738:	e3a00601 	mov	r0, #1048576	; 0x100000
4001073c:	e240d004 	sub	sp, r0, #4
40010740:	e321f0d2 	msr	CPSR_c, #210	; 0xd2
40010744:	e240da01 	sub	sp, r0, #4096	; 0x1000
40010748:	e321f0df 	msr	CPSR_c, #223	; 0xdf
4001074c:	e59fd004 	ldr	sp, [pc, #4]	; 40010758 <__bss_end+0x64>
40010750:	e321f0d3 	msr	CPSR_c, #211	; 0xd3
40010754:	e51ff000 	ldr	pc, [pc, #-0]	; 4001075c <__bss_end+0x68>
40010758:	00408000 	subeq	r8, r0, r0
4001075c:	0000006c 	andeq	r0, r0, ip, rrx
40010760:	e92d4800 	push	{fp, lr}
40010764:	e28db004 	add	fp, sp, #4
40010768:	e24dd028 	sub	sp, sp, #40	; 0x28
4001076c:	e3a03000 	mov	r3, #0
40010770:	e50b300c 	str	r3, [fp, #-12]
40010774:	e301069c 	movw	r0, #5788	; 0x169c
40010778:	e3400000 	movt	r0, #0
4001077c:	eb0000d4 	bl	40010ad4 <__bss_end+0x3e0>
40010780:	e30106b8 	movw	r0, #5816	; 0x16b8
40010784:	e3400000 	movt	r0, #0
40010788:	eb0000d1 	bl	40010ad4 <__bss_end+0x3e0>
4001078c:	e30106d8 	movw	r0, #5848	; 0x16d8
40010790:	e3400000 	movt	r0, #0
40010794:	eb0000ce 	bl	40010ad4 <__bss_end+0x3e0>
40010798:	e1a0300f 	mov	r3, pc
4001079c:	e50b3010 	str	r3, [fp, #-16]
400107a0:	e51b3010 	ldr	r3, [fp, #-16]
400107a4:	e50b3014 	str	r3, [fp, #-20]	; 0xffffffec
400107a8:	e1a0300d 	mov	r3, sp
400107ac:	e50b3018 	str	r3, [fp, #-24]	; 0xffffffe8
400107b0:	e51b3018 	ldr	r3, [fp, #-24]	; 0xffffffe8
400107b4:	e50b301c 	str	r3, [fp, #-28]	; 0xffffffe4
400107b8:	e30106f8 	movw	r0, #5880	; 0x16f8
400107bc:	e3400000 	movt	r0, #0
400107c0:	eb0000c3 	bl	40010ad4 <__bss_end+0x3e0>
400107c4:	e300306c 	movw	r3, #108	; 0x6c
400107c8:	e3403000 	movt	r3, #0
400107cc:	e1a00003 	mov	r0, r3
400107d0:	eb0000ff 	bl	40010bd4 <__bss_end+0x4e0>
400107d4:	e3010700 	movw	r0, #5888	; 0x1700
400107d8:	e3400000 	movt	r0, #0
400107dc:	eb0000bc 	bl	40010ad4 <__bss_end+0x3e0>
400107e0:	e51b001c 	ldr	r0, [fp, #-28]	; 0xffffffe4
400107e4:	eb0000fa 	bl	40010bd4 <__bss_end+0x4e0>
400107e8:	e3010708 	movw	r0, #5896	; 0x1708
400107ec:	e3400000 	movt	r0, #0
400107f0:	eb0000b7 	bl	40010ad4 <__bss_end+0x3e0>
400107f4:	e51b0014 	ldr	r0, [fp, #-20]	; 0xffffffec
400107f8:	eb0000f5 	bl	40010bd4 <__bss_end+0x4e0>
400107fc:	e3a00b11 	mov	r0, #17408	; 0x4400
40010800:	e3400010 	movt	r0, #16
40010804:	e3041420 	movw	r1, #17440	; 0x4420
40010808:	e3401010 	movt	r1, #16
4001080c:	e3a0201a 	mov	r2, #26
40010810:	e3442020 	movt	r2, #16416	; 0x4020
40010814:	eb00022d 	bl	400110d0 <__bss_end+0x9dc>
40010818:	e3a00b12 	mov	r0, #18432	; 0x4800
4001081c:	e3400010 	movt	r0, #16
40010820:	e3041820 	movw	r1, #18464	; 0x4820
40010824:	e3401010 	movt	r1, #16
40010828:	e3a0201a 	mov	r2, #26
4001082c:	e3442030 	movt	r2, #16432	; 0x4030
40010830:	eb000226 	bl	400110d0 <__bss_end+0x9dc>
40010834:	e3a00b13 	mov	r0, #19456	; 0x4c00
40010838:	e3400010 	movt	r0, #16
4001083c:	e3041c20 	movw	r1, #19488	; 0x4c20
40010840:	e3401010 	movt	r1, #16
40010844:	e3a0201a 	mov	r2, #26
40010848:	e3442040 	movt	r2, #16448	; 0x4040
4001084c:	eb00021f 	bl	400110d0 <__bss_end+0x9dc>
40010850:	e3a03002 	mov	r3, #2
40010854:	e50b3008 	str	r3, [fp, #-8]
40010858:	ea000026 	b	400108f8 <__bss_end+0x204>
4001085c:	e51b3008 	ldr	r3, [fp, #-8]
40010860:	e2833e41 	add	r3, r3, #1040	; 0x410
40010864:	e2833002 	add	r3, r3, #2
40010868:	e1a03503 	lsl	r3, r3, #10
4001086c:	e1a01003 	mov	r1, r3
40010870:	e51b3008 	ldr	r3, [fp, #-8]
40010874:	e1a03503 	lsl	r3, r3, #10
40010878:	e1a02003 	mov	r2, r3
4001087c:	e3043818 	movw	r3, #18456	; 0x4818
40010880:	e3403010 	movt	r3, #16
40010884:	e0823003 	add	r3, r2, r3
40010888:	e1a00001 	mov	r0, r1
4001088c:	e1a01003 	mov	r1, r3
40010890:	e3a0201a 	mov	r2, #26
40010894:	e3442030 	movt	r2, #16432	; 0x4030
40010898:	eb00020c 	bl	400110d0 <__bss_end+0x9dc>
4001089c:	e51b3008 	ldr	r3, [fp, #-8]
400108a0:	e1a03503 	lsl	r3, r3, #10
400108a4:	e1a02003 	mov	r2, r3
400108a8:	e3043818 	movw	r3, #18456	; 0x4818
400108ac:	e3403010 	movt	r3, #16
400108b0:	e0823003 	add	r3, r2, r3
400108b4:	e1a01003 	mov	r1, r3
400108b8:	e51b3008 	ldr	r3, [fp, #-8]
400108bc:	e1a03503 	lsl	r3, r3, #10
400108c0:	e2833941 	add	r3, r3, #1064960	; 0x104000
400108c4:	e2833e82 	add	r3, r3, #2080	; 0x820
400108c8:	e1a02003 	mov	r2, r3
400108cc:	e51b3008 	ldr	r3, [fp, #-8]
400108d0:	e1a03683 	lsl	r3, r3, #13
400108d4:	e2833169 	add	r3, r3, #1073741850	; 0x4000001a
400108d8:	e28339c1 	add	r3, r3, #3162112	; 0x304000
400108dc:	e1a00001 	mov	r0, r1
400108e0:	e1a01002 	mov	r1, r2
400108e4:	e1a02003 	mov	r2, r3
400108e8:	eb0001f8 	bl	400110d0 <__bss_end+0x9dc>
400108ec:	e51b3008 	ldr	r3, [fp, #-8]
400108f0:	e2833001 	add	r3, r3, #1
400108f4:	e50b3008 	str	r3, [fp, #-8]
400108f8:	e51b3008 	ldr	r3, [fp, #-8]
400108fc:	e353000f 	cmp	r3, #15
40010900:	daffffd5 	ble	4001085c <__bss_end+0x168>
40010904:	eb0001ed 	bl	400110c0 <__bss_end+0x9cc>
40010908:	e3a00010 	mov	r0, #16
4001090c:	e3400010 	movt	r0, #16
40010910:	e3041471 	movw	r1, #17521	; 0x4471
40010914:	e3441000 	movt	r1, #16384	; 0x4000
40010918:	eb0001f1 	bl	400110e4 <__bss_end+0x9f0>
4001091c:	e3a00008 	mov	r0, #8
40010920:	e3400010 	movt	r0, #16
40010924:	e3041c71 	movw	r1, #19569	; 0x4c71
40010928:	e3441000 	movt	r1, #16384	; 0x4000
4001092c:	eb0001ec 	bl	400110e4 <__bss_end+0x9f0>
40010930:	eb0001ed 	bl	400110ec <__bss_end+0x9f8>
40010934:	eb00011d 	bl	40010db0 <__bss_end+0x6bc>
40010938:	eb0001b3 	bl	4001100c <__bss_end+0x918>
4001093c:	e3010710 	movw	r0, #5904	; 0x1710
40010940:	e3400000 	movt	r0, #0
40010944:	eb000062 	bl	40010ad4 <__bss_end+0x3e0>
40010948:	e3a03602 	mov	r3, #2097152	; 0x200000
4001094c:	e3a02000 	mov	r2, #0
40010950:	e5832000 	str	r2, [r3]
40010954:	e3a03004 	mov	r3, #4
40010958:	e3403020 	movt	r3, #32
4001095c:	e3a02001 	mov	r2, #1
40010960:	e5832000 	str	r2, [r3]
40010964:	e3a03008 	mov	r3, #8
40010968:	e3403020 	movt	r3, #32
4001096c:	e50b3020 	str	r3, [fp, #-32]	; 0xffffffe0
40010970:	e51b0020 	ldr	r0, [fp, #-32]	; 0xffffffe0
40010974:	eb0003e5 	bl	40011910 <__bss_end+0x121c>
40010978:	e3a03501 	mov	r3, #4194304	; 0x400000
4001097c:	e50b3024 	str	r3, [fp, #-36]	; 0xffffffdc
40010980:	e3a03902 	mov	r3, #32768	; 0x8000
40010984:	e3403040 	movt	r3, #64	; 0x40
40010988:	e50b3028 	str	r3, [fp, #-40]	; 0xffffffd8
4001098c:	e51b302c 	ldr	r3, [fp, #-44]	; 0xffffffd4
40010990:	e51b2024 	ldr	r2, [fp, #-36]	; 0xffffffdc
40010994:	e51b1028 	ldr	r1, [fp, #-40]	; 0xffffffd8
40010998:	e241d004 	sub	sp, r1, #4
4001099c:	e3a00000 	mov	r0, #0
400109a0:	e14f3000 	mrs	r3, SPSR
400109a4:	e3c330ff 	bic	r3, r3, #255	; 0xff
400109a8:	e383305f 	orr	r3, r3, #95	; 0x5f
400109ac:	e161f003 	msr	SPSR_c, r3
400109b0:	e1b0f002 	movs	pc, r2
400109b4:	eafffffe 	b	400109b4 <__bss_end+0x2c0>
400109b8:	e3a00101 	mov	r0, #1073741824	; 0x40000000
400109bc:	e2801a05 	add	r1, r0, #20480	; 0x5000
400109c0:	e3a02000 	mov	r2, #0
400109c4:	e4802004 	str	r2, [r0], #4
400109c8:	e1500001 	cmp	r0, r1
400109cc:	bafffffc 	blt	400109c4 <__bss_end+0x2d0>
400109d0:	e59f0098 	ldr	r0, [pc, #152]	; 40010a70 <__bss_end+0x37c>
400109d4:	e2801b01 	add	r1, r0, #1024	; 0x400
400109d8:	e59f2094 	ldr	r2, [pc, #148]	; 40010a74 <__bss_end+0x380>
400109dc:	e4802004 	str	r2, [r0], #4
400109e0:	e1500001 	cmp	r0, r1
400109e4:	b2822a01 	addlt	r2, r2, #4096	; 0x1000
400109e8:	bafffffb 	blt	400109dc <__bss_end+0x2e8>
400109ec:	e3a00101 	mov	r0, #1073741824	; 0x40000000
400109f0:	e59f2080 	ldr	r2, [pc, #128]	; 40010a78 <__bss_end+0x384>
400109f4:	e5802000 	str	r2, [r0]
400109f8:	e2800a01 	add	r0, r0, #4096	; 0x1000
400109fc:	e2800004 	add	r0, r0, #4
40010a00:	e5802000 	str	r2, [r0]
40010a04:	e59f1064 	ldr	r1, [pc, #100]	; 40010a70 <__bss_end+0x37c>
40010a08:	e2410b01 	sub	r0, r1, #1024	; 0x400
40010a0c:	e59f2068 	ldr	r2, [pc, #104]	; 40010a7c <__bss_end+0x388>
40010a10:	e4802004 	str	r2, [r0], #4
40010a14:	e1500001 	cmp	r0, r1
40010a18:	b2822601 	addlt	r2, r2, #1048576	; 0x100000
40010a1c:	bafffffb 	blt	40010a10 <__bss_end+0x31c>
40010a20:	e3a00101 	mov	r0, #1073741824	; 0x40000000
40010a24:	e2800004 	add	r0, r0, #4
40010a28:	e59f2050 	ldr	r2, [pc, #80]	; 40010a80 <__bss_end+0x38c>
40010a2c:	e5802000 	str	r2, [r0]
40010a30:	e3a00101 	mov	r0, #1073741824	; 0x40000000
40010a34:	ee020f10 	mcr	15, 0, r0, cr2, cr0, {0}
40010a38:	e3a00040 	mov	r0, #64	; 0x40
40010a3c:	ee030f10 	mcr	15, 0, r0, cr3, cr0, {0}
40010a40:	e3a00000 	mov	r0, #0
40010a44:	ee070f17 	mcr	15, 0, r0, cr7, cr7, {0}
40010a48:	ee080f17 	mcr	15, 0, r0, cr8, cr7, {0}
40010a4c:	ee110f10 	mrc	15, 0, r0, cr1, cr0, {0}
40010a50:	e3c00c23 	bic	r0, r0, #8960	; 0x2300
40010a54:	e3c00087 	bic	r0, r0, #135	; 0x87
40010a58:	e3800002 	orr	r0, r0, #2
40010a5c:	e3800a01 	orr	r0, r0, #4096	; 0x1000
40010a60:	e3800004 	orr	r0, r0, #4
40010a64:	e3800001 	orr	r0, r0, #1
40010a68:	ee010f10 	mcr	15, 0, r0, cr1, cr0, {0}
40010a6c:	e1a0f00e 	mov	pc, lr
40010a70:	40004000 	andmi	r4, r0, r0
40010a74:	4010001a 	andsmi	r0, r0, sl, lsl r0
40010a78:	40004061 	andmi	r4, r0, r1, rrx
40010a7c:	1000046a 	andne	r0, r0, sl, ror #8
40010a80:	4000046a 	andmi	r0, r0, sl, ror #8
40010a84:	e52db004 	push	{fp}		; (str fp, [sp, #-4]!)
40010a88:	e28db000 	add	fp, sp, #0
40010a8c:	e24dd014 	sub	sp, sp, #20
40010a90:	e1a03000 	mov	r3, r0
40010a94:	e54b300d 	strb	r3, [fp, #-13]
40010a98:	e3a03000 	mov	r3, #0
40010a9c:	e34f3380 	movt	r3, #62336	; 0xf380
40010aa0:	e50b3008 	str	r3, [fp, #-8]
40010aa4:	e1a00000 	nop			; (mov r0, r0)
40010aa8:	e51b3008 	ldr	r3, [fp, #-8]
40010aac:	e5933010 	ldr	r3, [r3, #16]
40010ab0:	e2033002 	and	r3, r3, #2
40010ab4:	e3530000 	cmp	r3, #0
40010ab8:	0afffffa 	beq	40010aa8 <__bss_end+0x3b4>
40010abc:	e51b3008 	ldr	r3, [fp, #-8]
40010ac0:	e55b200d 	ldrb	r2, [fp, #-13]
40010ac4:	e5c32020 	strb	r2, [r3, #32]
40010ac8:	e24bd000 	sub	sp, fp, #0
40010acc:	e49db004 	pop	{fp}		; (ldr fp, [sp], #4)
40010ad0:	e12fff1e 	bx	lr
40010ad4:	e92d4800 	push	{fp, lr}
40010ad8:	e28db004 	add	fp, sp, #4
40010adc:	e24dd008 	sub	sp, sp, #8
40010ae0:	e50b0008 	str	r0, [fp, #-8]
40010ae4:	ea000005 	b	40010b00 <__bss_end+0x40c>
40010ae8:	e51b3008 	ldr	r3, [fp, #-8]
40010aec:	e2832001 	add	r2, r3, #1
40010af0:	e50b2008 	str	r2, [fp, #-8]
40010af4:	e5d33000 	ldrb	r3, [r3]
40010af8:	e1a00003 	mov	r0, r3
40010afc:	ebffffe0 	bl	40010a84 <__bss_end+0x390>
40010b00:	e51b3008 	ldr	r3, [fp, #-8]
40010b04:	e5d33000 	ldrb	r3, [r3]
40010b08:	e3530000 	cmp	r3, #0
40010b0c:	1afffff5 	bne	40010ae8 <__bss_end+0x3f4>
40010b10:	e24bd004 	sub	sp, fp, #4
40010b14:	e8bd8800 	pop	{fp, pc}
40010b18:	e92d4800 	push	{fp, lr}
40010b1c:	e28db004 	add	fp, sp, #4
40010b20:	e24dd020 	sub	sp, sp, #32
40010b24:	e50b0020 	str	r0, [fp, #-32]	; 0xffffffe0
40010b28:	e3a03030 	mov	r3, #48	; 0x30
40010b2c:	e54b3018 	strb	r3, [fp, #-24]	; 0xffffffe8
40010b30:	e3a03078 	mov	r3, #120	; 0x78
40010b34:	e54b3017 	strb	r3, [fp, #-23]	; 0xffffffe9
40010b38:	e3a03007 	mov	r3, #7
40010b3c:	e50b300c 	str	r3, [fp, #-12]
40010b40:	ea000019 	b	40010bac <__bss_end+0x4b8>
40010b44:	e51b300c 	ldr	r3, [fp, #-12]
40010b48:	e1a03103 	lsl	r3, r3, #2
40010b4c:	e51b2020 	ldr	r2, [fp, #-32]	; 0xffffffe0
40010b50:	e1a03332 	lsr	r3, r2, r3
40010b54:	e6ef3073 	uxtb	r3, r3
40010b58:	e203300f 	and	r3, r3, #15
40010b5c:	e54b3005 	strb	r3, [fp, #-5]
40010b60:	e55b3005 	ldrb	r3, [fp, #-5]
40010b64:	e3530009 	cmp	r3, #9
40010b68:	9a000003 	bls	40010b7c <__bss_end+0x488>
40010b6c:	e55b3005 	ldrb	r3, [fp, #-5]
40010b70:	e2833057 	add	r3, r3, #87	; 0x57
40010b74:	e54b3005 	strb	r3, [fp, #-5]
40010b78:	ea000002 	b	40010b88 <__bss_end+0x494>
40010b7c:	e55b3005 	ldrb	r3, [fp, #-5]
40010b80:	e2833030 	add	r3, r3, #48	; 0x30
40010b84:	e54b3005 	strb	r3, [fp, #-5]
40010b88:	e51b300c 	ldr	r3, [fp, #-12]
40010b8c:	e2633009 	rsb	r3, r3, #9
40010b90:	e24b2004 	sub	r2, fp, #4
40010b94:	e0823003 	add	r3, r2, r3
40010b98:	e55b2005 	ldrb	r2, [fp, #-5]
40010b9c:	e5432014 	strb	r2, [r3, #-20]	; 0xffffffec
40010ba0:	e51b300c 	ldr	r3, [fp, #-12]
40010ba4:	e2433001 	sub	r3, r3, #1
40010ba8:	e50b300c 	str	r3, [fp, #-12]
40010bac:	e51b300c 	ldr	r3, [fp, #-12]
40010bb0:	e3530000 	cmp	r3, #0
40010bb4:	aaffffe2 	bge	40010b44 <__bss_end+0x450>
40010bb8:	e3a03000 	mov	r3, #0
40010bbc:	e54b300e 	strb	r3, [fp, #-14]
40010bc0:	e24b3018 	sub	r3, fp, #24
40010bc4:	e1a00003 	mov	r0, r3
40010bc8:	ebffffc1 	bl	40010ad4 <__bss_end+0x3e0>
40010bcc:	e24bd004 	sub	sp, fp, #4
40010bd0:	e8bd8800 	pop	{fp, pc}
40010bd4:	e92d4800 	push	{fp, lr}
40010bd8:	e28db004 	add	fp, sp, #4
40010bdc:	e24dd008 	sub	sp, sp, #8
40010be0:	e50b0008 	str	r0, [fp, #-8]
40010be4:	e51b0008 	ldr	r0, [fp, #-8]
40010be8:	ebffffca 	bl	40010b18 <__bss_end+0x424>
40010bec:	e3a0000a 	mov	r0, #10
40010bf0:	ebffffa3 	bl	40010a84 <__bss_end+0x390>
40010bf4:	e24bd004 	sub	sp, fp, #4
40010bf8:	e8bd8800 	pop	{fp, pc}
40010bfc:	eafffffe 	b	40010bfc <__bss_end+0x508>
40010c00:	eafffffe 	b	40010c00 <__bss_end+0x50c>
40010c04:	eafffffe 	b	40010c04 <__bss_end+0x510>
40010c08:	eafffffe 	b	40010c08 <__bss_end+0x514>
40010c0c:	eafffffe 	b	40010c0c <__bss_end+0x518>
40010c10:	e59fd084 	ldr	sp, [pc, #132]	; 40010c9c <__bss_end+0x5a8>
40010c14:	e59dd000 	ldr	sp, [sp]
40010c18:	e28dd008 	add	sp, sp, #8
40010c1c:	e8cd7fff 	stmia	sp, {r0, r1, r2, r3, r4, r5, r6, r7, r8, r9, sl, fp, ip, sp, lr}^
40010c20:	e14f0000 	mrs	r0, SPSR
40010c24:	e90d7fff 	stmdb	sp, {r0, r1, r2, r3, r4, r5, r6, r7, r8, r9, sl, fp, ip, sp, lr}
40010c28:	e3a0d601 	mov	sp, #1048576	; 0x100000
40010c2c:	e51ea004 	ldr	sl, [lr, #-4]
40010c30:	e3caa4ff 	bic	sl, sl, #-16777216	; 0xff000000
40010c34:	e1a0000a 	mov	r0, sl
40010c38:	e1a01001 	mov	r1, r1
40010c3c:	eb000018 	bl	40010ca4 <__bss_end+0x5b0>
40010c40:	e59fd058 	ldr	sp, [pc, #88]	; 40010ca0 <__bss_end+0x5ac>
40010c44:	e59dd000 	ldr	sp, [sp]
40010c48:	e28dd008 	add	sp, sp, #8
40010c4c:	e91d4001 	ldmdb	sp, {r0, lr}
40010c50:	e16ff000 	msr	SPSR_fsxc, r0
40010c54:	e8dd7fff 	ldm	sp, {r0, r1, r2, r3, r4, r5, r6, r7, r8, r9, sl, fp, ip, sp, lr}^
40010c58:	e1b0f00e 	movs	pc, lr
40010c5c:	e24ee004 	sub	lr, lr, #4
40010c60:	e59fd034 	ldr	sp, [pc, #52]	; 40010c9c <__bss_end+0x5a8>
40010c64:	e59dd000 	ldr	sp, [sp]
40010c68:	e28dd008 	add	sp, sp, #8
40010c6c:	e8cd7fff 	stmia	sp, {r0, r1, r2, r3, r4, r5, r6, r7, r8, r9, sl, fp, ip, sp, lr}^
40010c70:	e14f0000 	mrs	r0, SPSR
40010c74:	e90d4001 	stmdb	sp, {r0, lr}
40010c78:	e3a0daff 	mov	sp, #1044480	; 0xff000
40010c7c:	eb000075 	bl	40010e58 <__bss_end+0x764>
40010c80:	e59fd018 	ldr	sp, [pc, #24]	; 40010ca0 <__bss_end+0x5ac>
40010c84:	e59dd000 	ldr	sp, [sp]
40010c88:	e28dd008 	add	sp, sp, #8
40010c8c:	e91d4001 	ldmdb	sp, {r0, lr}
40010c90:	e16ff000 	msr	SPSR_fsxc, r0
40010c94:	e8dd7fff 	ldm	sp, {r0, r1, r2, r3, r4, r5, r6, r7, r8, r9, sl, fp, ip, sp, lr}^
40010c98:	e1b0f00e 	movs	pc, lr
40010c9c:	00002094 	muleq	r0, r4, r0
40010ca0:	0000209c 	muleq	r0, ip, r0
40010ca4:	e92d4800 	push	{fp, lr}
40010ca8:	e28db004 	add	fp, sp, #4
40010cac:	e24dd018 	sub	sp, sp, #24
40010cb0:	e50b0018 	str	r0, [fp, #-24]	; 0xffffffe8
40010cb4:	e50b101c 	str	r1, [fp, #-28]	; 0xffffffe4
40010cb8:	e51b3018 	ldr	r3, [fp, #-24]	; 0xffffffe8
40010cbc:	e3530080 	cmp	r3, #128	; 0x80
40010cc0:	1a000016 	bne	40010d20 <__bss_end+0x62c>
40010cc4:	e51b301c 	ldr	r3, [fp, #-28]	; 0xffffffe4
40010cc8:	e50b3008 	str	r3, [fp, #-8]
40010ccc:	e3023094 	movw	r3, #8340	; 0x2094
40010cd0:	e3403000 	movt	r3, #0
40010cd4:	e5932000 	ldr	r2, [r3]
40010cd8:	e3013734 	movw	r3, #5940	; 0x1734
40010cdc:	e3403000 	movt	r3, #0
40010ce0:	e5931000 	ldr	r1, [r3]
40010ce4:	e51b3008 	ldr	r3, [fp, #-8]
40010ce8:	e0813003 	add	r3, r1, r3
40010cec:	e5823060 	str	r3, [r2, #96]	; 0x60
40010cf0:	e3023094 	movw	r3, #8340	; 0x2094
40010cf4:	e3403000 	movt	r3, #0
40010cf8:	e5933000 	ldr	r3, [r3]
40010cfc:	e30200a0 	movw	r0, #8352	; 0x20a0
40010d00:	e3400000 	movt	r0, #0
40010d04:	e1a01003 	mov	r1, r3
40010d08:	eb000372 	bl	40011ad8 <__bss_end+0x13e4>
40010d0c:	e3023094 	movw	r3, #8340	; 0x2094
40010d10:	e3403000 	movt	r3, #0
40010d14:	e5933000 	ldr	r3, [r3]
40010d18:	e3a02001 	mov	r2, #1
40010d1c:	e5832054 	str	r2, [r3, #84]	; 0x54
40010d20:	e51b3018 	ldr	r3, [fp, #-24]	; 0xffffffe8
40010d24:	e353007f 	cmp	r3, #127	; 0x7f
40010d28:	1a000005 	bne	40010d44 <__bss_end+0x650>
40010d2c:	e51b301c 	ldr	r3, [fp, #-28]	; 0xffffffe4
40010d30:	e50b300c 	str	r3, [fp, #-12]
40010d34:	e3a0005e 	mov	r0, #94	; 0x5e
40010d38:	ebffff51 	bl	40010a84 <__bss_end+0x390>
40010d3c:	e51b000c 	ldr	r0, [fp, #-12]
40010d40:	eb0003e1 	bl	40011ccc <__bss_end+0x15d8>
40010d44:	e51b3018 	ldr	r3, [fp, #-24]	; 0xffffffe8
40010d48:	e353007e 	cmp	r3, #126	; 0x7e
40010d4c:	1a000003 	bne	40010d60 <__bss_end+0x66c>
40010d50:	e51b301c 	ldr	r3, [fp, #-28]	; 0xffffffe4
40010d54:	e50b3010 	str	r3, [fp, #-16]
40010d58:	e51b0010 	ldr	r0, [fp, #-16]
40010d5c:	eb0003eb 	bl	40011d10 <__bss_end+0x161c>
40010d60:	e3023094 	movw	r3, #8340	; 0x2094
40010d64:	e3403000 	movt	r3, #0
40010d68:	e5933000 	ldr	r3, [r3]
40010d6c:	e5933054 	ldr	r3, [r3, #84]	; 0x54
40010d70:	e3530001 	cmp	r3, #1
40010d74:	1a000005 	bne	40010d90 <__bss_end+0x69c>
40010d78:	e3023094 	movw	r3, #8340	; 0x2094
40010d7c:	e3403000 	movt	r3, #0
40010d80:	e5933000 	ldr	r3, [r3]
40010d84:	e3a02000 	mov	r2, #0
40010d88:	e5832054 	str	r2, [r3, #84]	; 0x54
40010d8c:	eb000226 	bl	4001162c <__bss_end+0xf38>
40010d90:	e24bd004 	sub	sp, fp, #4
40010d94:	e8bd8800 	pop	{fp, pc}
40010d98:	e92d4800 	push	{fp, lr}
40010d9c:	e28db004 	add	fp, sp, #4
40010da0:	e3010720 	movw	r0, #5920	; 0x1720
40010da4:	e3400000 	movt	r0, #0
40010da8:	ebffff49 	bl	40010ad4 <__bss_end+0x3e0>
40010dac:	e8bd8800 	pop	{fp, pc}
40010db0:	e52db004 	push	{fp}		; (str fp, [sp, #-4]!)
40010db4:	e28db000 	add	fp, sp, #0
40010db8:	e24dd00c 	sub	sp, sp, #12
40010dbc:	e3a03000 	mov	r3, #0
40010dc0:	e50b3008 	str	r3, [fp, #-8]
40010dc4:	ea000008 	b	40010dec <__bss_end+0x6f8>
40010dc8:	e3013740 	movw	r3, #5952	; 0x1740
40010dcc:	e3403000 	movt	r3, #0
40010dd0:	e51b1008 	ldr	r1, [fp, #-8]
40010dd4:	e30026a4 	movw	r2, #1700	; 0x6a4
40010dd8:	e3402000 	movt	r2, #0
40010ddc:	e7832101 	str	r2, [r3, r1, lsl #2]
40010de0:	e51b3008 	ldr	r3, [fp, #-8]
40010de4:	e2833001 	add	r3, r3, #1
40010de8:	e50b3008 	str	r3, [fp, #-8]
40010dec:	e51b3008 	ldr	r3, [fp, #-8]
40010df0:	e353005f 	cmp	r3, #95	; 0x5f
40010df4:	dafffff3 	ble	40010dc8 <__bss_end+0x6d4>
40010df8:	e3003848 	movw	r3, #2120	; 0x848
40010dfc:	e34f3049 	movt	r3, #61513	; 0xf049
40010e00:	e3002101 	movw	r2, #257	; 0x101
40010e04:	e3402101 	movt	r2, #257	; 0x101
40010e08:	e5832000 	str	r2, [r3]
40010e0c:	e3a03f42 	mov	r3, #264	; 0x108
40010e10:	e34f3049 	movt	r3, #61513	; 0xf049
40010e14:	e3a02c02 	mov	r2, #512	; 0x200
40010e18:	e5832000 	str	r2, [r3]
40010e1c:	e3a03004 	mov	r3, #4
40010e20:	e34f3048 	movt	r3, #61512	; 0xf048
40010e24:	e3a020ff 	mov	r2, #255	; 0xff
40010e28:	e5832000 	str	r2, [r3]
40010e2c:	e3a03000 	mov	r3, #0
40010e30:	e34f3048 	movt	r3, #61512	; 0xf048
40010e34:	e3a02003 	mov	r2, #3
40010e38:	e5832000 	str	r2, [r3]
40010e3c:	e3a03000 	mov	r3, #0
40010e40:	e34f3049 	movt	r3, #61513	; 0xf049
40010e44:	e3a02001 	mov	r2, #1
40010e48:	e5832000 	str	r2, [r3]
40010e4c:	e24bd000 	sub	sp, fp, #0
40010e50:	e49db004 	pop	{fp}		; (ldr fp, [sp], #4)
40010e54:	e12fff1e 	bx	lr
40010e58:	e92d4800 	push	{fp, lr}
40010e5c:	e28db004 	add	fp, sp, #4
40010e60:	e24dd010 	sub	sp, sp, #16
40010e64:	e3a0300c 	mov	r3, #12
40010e68:	e34f3048 	movt	r3, #61512	; 0xf048
40010e6c:	e5933000 	ldr	r3, [r3]
40010e70:	e50b3008 	str	r3, [fp, #-8]
40010e74:	e51b3008 	ldr	r3, [fp, #-8]
40010e78:	e7e93053 	ubfx	r3, r3, #0, #10
40010e7c:	e50b300c 	str	r3, [fp, #-12]
40010e80:	e3013734 	movw	r3, #5940	; 0x1734
40010e84:	e3403000 	movt	r3, #0
40010e88:	e5933000 	ldr	r3, [r3]
40010e8c:	e2832001 	add	r2, r3, #1
40010e90:	e3013734 	movw	r3, #5940	; 0x1734
40010e94:	e3403000 	movt	r3, #0
40010e98:	e5832000 	str	r2, [r3]
40010e9c:	e3023094 	movw	r3, #8340	; 0x2094
40010ea0:	e3403000 	movt	r3, #0
40010ea4:	e5933000 	ldr	r3, [r3]
40010ea8:	e593204c 	ldr	r2, [r3, #76]	; 0x4c
40010eac:	e2422001 	sub	r2, r2, #1
40010eb0:	e583204c 	str	r2, [r3, #76]	; 0x4c
40010eb4:	e3023094 	movw	r3, #8340	; 0x2094
40010eb8:	e3403000 	movt	r3, #0
40010ebc:	e5933000 	ldr	r3, [r3]
40010ec0:	e593304c 	ldr	r3, [r3, #76]	; 0x4c
40010ec4:	e3530000 	cmp	r3, #0
40010ec8:	1a000015 	bne	40010f24 <__bss_end+0x830>
40010ecc:	e3023094 	movw	r3, #8340	; 0x2094
40010ed0:	e3403000 	movt	r3, #0
40010ed4:	e5932000 	ldr	r2, [r3]
40010ed8:	e3023094 	movw	r3, #8340	; 0x2094
40010edc:	e3403000 	movt	r3, #0
40010ee0:	e5933000 	ldr	r3, [r3]
40010ee4:	e5933050 	ldr	r3, [r3, #80]	; 0x50
40010ee8:	e582304c 	str	r3, [r2, #76]	; 0x4c
40010eec:	e302308c 	movw	r3, #8332	; 0x208c
40010ef0:	e3403000 	movt	r3, #0
40010ef4:	e5932000 	ldr	r2, [r3]
40010ef8:	e3023094 	movw	r3, #8340	; 0x2094
40010efc:	e3403000 	movt	r3, #0
40010f00:	e5933000 	ldr	r3, [r3]
40010f04:	e1a00002 	mov	r0, r2
40010f08:	e1a01003 	mov	r1, r3
40010f0c:	eb00029b 	bl	40011980 <__bss_end+0x128c>
40010f10:	e3023094 	movw	r3, #8340	; 0x2094
40010f14:	e3403000 	movt	r3, #0
40010f18:	e5933000 	ldr	r3, [r3]
40010f1c:	e3a02001 	mov	r2, #1
40010f20:	e5832054 	str	r2, [r3, #84]	; 0x54
40010f24:	e3013740 	movw	r3, #5952	; 0x1740
40010f28:	e3403000 	movt	r3, #0
40010f2c:	e51b200c 	ldr	r2, [fp, #-12]
40010f30:	e7933102 	ldr	r3, [r3, r2, lsl #2]
40010f34:	e12fff33 	blx	r3
40010f38:	e3a03010 	mov	r3, #16
40010f3c:	e34f3048 	movt	r3, #61512	; 0xf048
40010f40:	e51b2008 	ldr	r2, [fp, #-8]
40010f44:	e7e92052 	ubfx	r2, r2, #0, #10
40010f48:	e5832000 	str	r2, [r3]
40010f4c:	e3013734 	movw	r3, #5940	; 0x1734
40010f50:	e3403000 	movt	r3, #0
40010f54:	e5933000 	ldr	r3, [r3]
40010f58:	e30200a0 	movw	r0, #8352	; 0x20a0
40010f5c:	e3400000 	movt	r0, #0
40010f60:	e1a01003 	mov	r1, r3
40010f64:	eb000324 	bl	40011bfc <__bss_end+0x1508>
40010f68:	e50b0010 	str	r0, [fp, #-16]
40010f6c:	e51b3010 	ldr	r3, [fp, #-16]
40010f70:	e3530000 	cmp	r3, #0
40010f74:	0a000016 	beq	40010fd4 <__bss_end+0x8e0>
40010f78:	e51b3010 	ldr	r3, [fp, #-16]
40010f7c:	e3730001 	cmn	r3, #1
40010f80:	0a000013 	beq	40010fd4 <__bss_end+0x8e0>
40010f84:	e3023090 	movw	r3, #8336	; 0x2090
40010f88:	e3403000 	movt	r3, #0
40010f8c:	e5933000 	ldr	r3, [r3]
40010f90:	e1a00003 	mov	r0, r3
40010f94:	e51b1010 	ldr	r1, [fp, #-16]
40010f98:	eb000278 	bl	40011980 <__bss_end+0x128c>
40010f9c:	e3023094 	movw	r3, #8340	; 0x2094
40010fa0:	e3403000 	movt	r3, #0
40010fa4:	e5933000 	ldr	r3, [r3]
40010fa8:	e5932058 	ldr	r2, [r3, #88]	; 0x58
40010fac:	e51b3010 	ldr	r3, [fp, #-16]
40010fb0:	e5933058 	ldr	r3, [r3, #88]	; 0x58
40010fb4:	e1520003 	cmp	r2, r3
40010fb8:	2a000004 	bcs	40010fd0 <__bss_end+0x8dc>
40010fbc:	e3023094 	movw	r3, #8340	; 0x2094
40010fc0:	e3403000 	movt	r3, #0
40010fc4:	e5933000 	ldr	r3, [r3]
40010fc8:	e3a02001 	mov	r2, #1
40010fcc:	e5832054 	str	r2, [r3, #84]	; 0x54
40010fd0:	eaffffdd 	b	40010f4c <__bss_end+0x858>
40010fd4:	e3023094 	movw	r3, #8340	; 0x2094
40010fd8:	e3403000 	movt	r3, #0
40010fdc:	e5933000 	ldr	r3, [r3]
40010fe0:	e5933054 	ldr	r3, [r3, #84]	; 0x54
40010fe4:	e3530001 	cmp	r3, #1
40010fe8:	1a000005 	bne	40011004 <__bss_end+0x910>
40010fec:	e3023094 	movw	r3, #8340	; 0x2094
40010ff0:	e3403000 	movt	r3, #0
40010ff4:	e5933000 	ldr	r3, [r3]
40010ff8:	e3a02000 	mov	r2, #0
40010ffc:	e5832054 	str	r2, [r3, #84]	; 0x54
40011000:	eb000189 	bl	4001162c <__bss_end+0xf38>
40011004:	e24bd004 	sub	sp, fp, #4
40011008:	e8bd8800 	pop	{fp, pc}
4001100c:	e52db004 	push	{fp}		; (str fp, [sp, #-4]!)
40011010:	e28db000 	add	fp, sp, #0
40011014:	e3a03000 	mov	r3, #0
40011018:	e34f339d 	movt	r3, #62365	; 0xf39d
4001101c:	e3a02b03 	mov	r2, #3072	; 0xc00
40011020:	e5832000 	str	r2, [r3]
40011024:	e3a0303c 	mov	r3, #60	; 0x3c
40011028:	e34f339d 	movt	r3, #62365	; 0xf39d
4001102c:	e30123d8 	movw	r2, #5080	; 0x13d8
40011030:	e5832000 	str	r2, [r3]
40011034:	e3a03008 	mov	r3, #8
40011038:	e34f339d 	movt	r3, #62365	; 0xf39d
4001103c:	e3a02605 	mov	r2, #5242880	; 0x500000
40011040:	e5832000 	str	r2, [r3]
40011044:	e3a03044 	mov	r3, #68	; 0x44
40011048:	e34f339d 	movt	r3, #62365	; 0xf39d
4001104c:	e3a02010 	mov	r2, #16
40011050:	e5832000 	str	r2, [r3]
40011054:	e3013740 	movw	r3, #5952	; 0x1740
40011058:	e3403000 	movt	r3, #0
4001105c:	e3002980 	movw	r2, #2432	; 0x980
40011060:	e3402000 	movt	r2, #0
40011064:	e5832124 	str	r2, [r3, #292]	; 0x124
40011068:	e24bd000 	sub	sp, fp, #0
4001106c:	e49db004 	pop	{fp}		; (ldr fp, [sp], #4)
40011070:	e12fff1e 	bx	lr
40011074:	e52db004 	push	{fp}		; (str fp, [sp, #-4]!)
40011078:	e28db000 	add	fp, sp, #0
4001107c:	e30138c0 	movw	r3, #6336	; 0x18c0
40011080:	e3403000 	movt	r3, #0
40011084:	e5933000 	ldr	r3, [r3]
40011088:	e2832001 	add	r2, r3, #1
4001108c:	e30138c0 	movw	r3, #6336	; 0x18c0
40011090:	e3403000 	movt	r3, #0
40011094:	e5832000 	str	r2, [r3]
40011098:	e3a03044 	mov	r3, #68	; 0x44
4001109c:	e34f339d 	movt	r3, #62365	; 0xf39d
400110a0:	e3a02044 	mov	r2, #68	; 0x44
400110a4:	e34f239d 	movt	r2, #62365	; 0xf39d
400110a8:	e5922000 	ldr	r2, [r2]
400110ac:	e3822c02 	orr	r2, r2, #512	; 0x200
400110b0:	e5832000 	str	r2, [r3]
400110b4:	e24bd000 	sub	sp, fp, #0
400110b8:	e49db004 	pop	{fp}		; (ldr fp, [sp], #4)
400110bc:	e12fff1e 	bx	lr
400110c0:	e3a00000 	mov	r0, #0
400110c4:	ee070f17 	mcr	15, 0, r0, cr7, cr7, {0}
400110c8:	ee080f17 	mcr	15, 0, r0, cr8, cr7, {0}
400110cc:	e1a0f00e 	mov	pc, lr
400110d0:	e4802004 	str	r2, [r0], #4
400110d4:	e1500001 	cmp	r0, r1
400110d8:	b2822a01 	addlt	r2, r2, #4096	; 0x1000
400110dc:	bafffffb 	blt	400110d0 <__bss_end+0x9dc>
400110e0:	e1a0f00e 	mov	pc, lr
400110e4:	e5801000 	str	r1, [r0]
400110e8:	e1a0f00e 	mov	pc, lr
400110ec:	e92d4800 	push	{fp, lr}
400110f0:	e28db004 	add	fp, sp, #4
400110f4:	e24dd008 	sub	sp, sp, #8
400110f8:	e3023094 	movw	r3, #8340	; 0x2094
400110fc:	e3403000 	movt	r3, #0
40011100:	e3012a4c 	movw	r2, #6732	; 0x1a4c
40011104:	e3402000 	movt	r2, #0
40011108:	e5832000 	str	r2, [r3]
4001110c:	e3023094 	movw	r3, #8340	; 0x2094
40011110:	e3403000 	movt	r3, #0
40011114:	e5932000 	ldr	r2, [r3]
40011118:	e302309c 	movw	r3, #8348	; 0x209c
4001111c:	e3403000 	movt	r3, #0
40011120:	e5832000 	str	r2, [r3]
40011124:	e3013a4c 	movw	r3, #6732	; 0x1a4c
40011128:	e3403000 	movt	r3, #0
4001112c:	e3a02000 	mov	r2, #0
40011130:	e5832008 	str	r2, [r3, #8]
40011134:	e3012a4c 	movw	r2, #6732	; 0x1a4c
40011138:	e3402000 	movt	r2, #0
4001113c:	e3a03902 	mov	r3, #32768	; 0x8000
40011140:	e3403040 	movt	r3, #64	; 0x40
40011144:	e582303c 	str	r3, [r2, #60]	; 0x3c
40011148:	e3013a4c 	movw	r3, #6732	; 0x1a4c
4001114c:	e3403000 	movt	r3, #0
40011150:	e3a02501 	mov	r2, #4194304	; 0x400000
40011154:	e5832004 	str	r2, [r3, #4]
40011158:	e3013a4c 	movw	r3, #6732	; 0x1a4c
4001115c:	e3403000 	movt	r3, #0
40011160:	e3a0205f 	mov	r2, #95	; 0x5f
40011164:	e5832000 	str	r2, [r3]
40011168:	e3013a4c 	movw	r3, #6732	; 0x1a4c
4001116c:	e3403000 	movt	r3, #0
40011170:	e3a02000 	mov	r2, #0
40011174:	e5832048 	str	r2, [r3, #72]	; 0x48
40011178:	e3013a4c 	movw	r3, #6732	; 0x1a4c
4001117c:	e3403000 	movt	r3, #0
40011180:	e3a0200a 	mov	r2, #10
40011184:	e583204c 	str	r2, [r3, #76]	; 0x4c
40011188:	e3013a4c 	movw	r3, #6732	; 0x1a4c
4001118c:	e3403000 	movt	r3, #0
40011190:	e3a0200a 	mov	r2, #10
40011194:	e5832050 	str	r2, [r3, #80]	; 0x50
40011198:	e3013a4c 	movw	r3, #6732	; 0x1a4c
4001119c:	e3403000 	movt	r3, #0
400111a0:	e3a02000 	mov	r2, #0
400111a4:	e5832054 	str	r2, [r3, #84]	; 0x54
400111a8:	e3013a4c 	movw	r3, #6732	; 0x1a4c
400111ac:	e3403000 	movt	r3, #0
400111b0:	e3a0200f 	mov	r2, #15
400111b4:	e5832058 	str	r2, [r3, #88]	; 0x58
400111b8:	e3013a4c 	movw	r3, #6732	; 0x1a4c
400111bc:	e3403000 	movt	r3, #0
400111c0:	e3a02000 	mov	r2, #0
400111c4:	e583205c 	str	r2, [r3, #92]	; 0x5c
400111c8:	e3013a4c 	movw	r3, #6732	; 0x1a4c
400111cc:	e3403000 	movt	r3, #0
400111d0:	e3a02000 	mov	r2, #0
400111d4:	e5832060 	str	r2, [r3, #96]	; 0x60
400111d8:	e3013a4c 	movw	r3, #6732	; 0x1a4c
400111dc:	e3403000 	movt	r3, #0
400111e0:	e3a02001 	mov	r2, #1
400111e4:	e583206c 	str	r2, [r3, #108]	; 0x6c
400111e8:	e3012a4c 	movw	r2, #6732	; 0x1a4c
400111ec:	e3402000 	movt	r2, #0
400111f0:	e3a03902 	mov	r3, #32768	; 0x8000
400111f4:	e3403040 	movt	r3, #64	; 0x40
400111f8:	e58230a0 	str	r3, [r2, #160]	; 0xa0
400111fc:	e3013a4c 	movw	r3, #6732	; 0x1a4c
40011200:	e3403000 	movt	r3, #0
40011204:	e3a02501 	mov	r2, #4194304	; 0x400000
40011208:	e5832068 	str	r2, [r3, #104]	; 0x68
4001120c:	e3013a4c 	movw	r3, #6732	; 0x1a4c
40011210:	e3403000 	movt	r3, #0
40011214:	e3a0205f 	mov	r2, #95	; 0x5f
40011218:	e5832064 	str	r2, [r3, #100]	; 0x64
4001121c:	e3013a4c 	movw	r3, #6732	; 0x1a4c
40011220:	e3403000 	movt	r3, #0
40011224:	e3a02001 	mov	r2, #1
40011228:	e58320ac 	str	r2, [r3, #172]	; 0xac
4001122c:	e3013a4c 	movw	r3, #6732	; 0x1a4c
40011230:	e3403000 	movt	r3, #0
40011234:	e3a0200a 	mov	r2, #10
40011238:	e58320b0 	str	r2, [r3, #176]	; 0xb0
4001123c:	e3013a4c 	movw	r3, #6732	; 0x1a4c
40011240:	e3403000 	movt	r3, #0
40011244:	e3a0200a 	mov	r2, #10
40011248:	e58320b4 	str	r2, [r3, #180]	; 0xb4
4001124c:	e3013a4c 	movw	r3, #6732	; 0x1a4c
40011250:	e3403000 	movt	r3, #0
40011254:	e3a02000 	mov	r2, #0
40011258:	e58320b8 	str	r2, [r3, #184]	; 0xb8
4001125c:	e3013a4c 	movw	r3, #6732	; 0x1a4c
40011260:	e3403000 	movt	r3, #0
40011264:	e3a02000 	mov	r2, #0
40011268:	e58320bc 	str	r2, [r3, #188]	; 0xbc
4001126c:	e3013a4c 	movw	r3, #6732	; 0x1a4c
40011270:	e3403000 	movt	r3, #0
40011274:	e3a02000 	mov	r2, #0
40011278:	e58320c0 	str	r2, [r3, #192]	; 0xc0
4001127c:	e3013a4c 	movw	r3, #6732	; 0x1a4c
40011280:	e3403000 	movt	r3, #0
40011284:	e3a02000 	mov	r2, #0
40011288:	e58320c4 	str	r2, [r3, #196]	; 0xc4
4001128c:	e3013a4c 	movw	r3, #6732	; 0x1a4c
40011290:	e3403000 	movt	r3, #0
40011294:	e3a02002 	mov	r2, #2
40011298:	e58320d0 	str	r2, [r3, #208]	; 0xd0
4001129c:	e3012a4c 	movw	r2, #6732	; 0x1a4c
400112a0:	e3402000 	movt	r2, #0
400112a4:	e3a03902 	mov	r3, #32768	; 0x8000
400112a8:	e3403040 	movt	r3, #64	; 0x40
400112ac:	e5823104 	str	r3, [r2, #260]	; 0x104
400112b0:	e3013a4c 	movw	r3, #6732	; 0x1a4c
400112b4:	e3403000 	movt	r3, #0
400112b8:	e3a02501 	mov	r2, #4194304	; 0x400000
400112bc:	e58320cc 	str	r2, [r3, #204]	; 0xcc
400112c0:	e3013a4c 	movw	r3, #6732	; 0x1a4c
400112c4:	e3403000 	movt	r3, #0
400112c8:	e3a0205f 	mov	r2, #95	; 0x5f
400112cc:	e58320c8 	str	r2, [r3, #200]	; 0xc8
400112d0:	e3013a4c 	movw	r3, #6732	; 0x1a4c
400112d4:	e3403000 	movt	r3, #0
400112d8:	e3a02002 	mov	r2, #2
400112dc:	e5832110 	str	r2, [r3, #272]	; 0x110
400112e0:	e3013a4c 	movw	r3, #6732	; 0x1a4c
400112e4:	e3403000 	movt	r3, #0
400112e8:	e3a0200a 	mov	r2, #10
400112ec:	e5832114 	str	r2, [r3, #276]	; 0x114
400112f0:	e3013a4c 	movw	r3, #6732	; 0x1a4c
400112f4:	e3403000 	movt	r3, #0
400112f8:	e3a0200a 	mov	r2, #10
400112fc:	e5832118 	str	r2, [r3, #280]	; 0x118
40011300:	e3013a4c 	movw	r3, #6732	; 0x1a4c
40011304:	e3403000 	movt	r3, #0
40011308:	e3a02000 	mov	r2, #0
4001130c:	e583211c 	str	r2, [r3, #284]	; 0x11c
40011310:	e3013a4c 	movw	r3, #6732	; 0x1a4c
40011314:	e3403000 	movt	r3, #0
40011318:	e3a02000 	mov	r2, #0
4001131c:	e5832120 	str	r2, [r3, #288]	; 0x120
40011320:	e3013a4c 	movw	r3, #6732	; 0x1a4c
40011324:	e3403000 	movt	r3, #0
40011328:	e3a02000 	mov	r2, #0
4001132c:	e5832124 	str	r2, [r3, #292]	; 0x124
40011330:	e3013a4c 	movw	r3, #6732	; 0x1a4c
40011334:	e3403000 	movt	r3, #0
40011338:	e3a02000 	mov	r2, #0
4001133c:	e5832128 	str	r2, [r3, #296]	; 0x128
40011340:	e3a03003 	mov	r3, #3
40011344:	e50b3008 	str	r3, [fp, #-8]
40011348:	ea000088 	b	40011570 <__bss_end+0xe7c>
4001134c:	e51b1008 	ldr	r1, [fp, #-8]
40011350:	e3012a4c 	movw	r2, #6732	; 0x1a4c
40011354:	e3402000 	movt	r2, #0
40011358:	e51b3008 	ldr	r3, [fp, #-8]
4001135c:	e1a03103 	lsl	r3, r3, #2
40011360:	e1a00103 	lsl	r0, r3, #2
40011364:	e0833000 	add	r3, r3, r0
40011368:	e1a00103 	lsl	r0, r3, #2
4001136c:	e0833000 	add	r3, r3, r0
40011370:	e0823003 	add	r3, r2, r3
40011374:	e2833008 	add	r3, r3, #8
40011378:	e5831000 	str	r1, [r3]
4001137c:	e3012a4c 	movw	r2, #6732	; 0x1a4c
40011380:	e3402000 	movt	r2, #0
40011384:	e51b3008 	ldr	r3, [fp, #-8]
40011388:	e1a03103 	lsl	r3, r3, #2
4001138c:	e1a01103 	lsl	r1, r3, #2
40011390:	e0833001 	add	r3, r3, r1
40011394:	e1a01103 	lsl	r1, r3, #2
40011398:	e0833001 	add	r3, r3, r1
4001139c:	e0823003 	add	r3, r2, r3
400113a0:	e283203c 	add	r2, r3, #60	; 0x3c
400113a4:	e3a03902 	mov	r3, #32768	; 0x8000
400113a8:	e3403040 	movt	r3, #64	; 0x40
400113ac:	e5823000 	str	r3, [r2]
400113b0:	e3012a4c 	movw	r2, #6732	; 0x1a4c
400113b4:	e3402000 	movt	r2, #0
400113b8:	e51b3008 	ldr	r3, [fp, #-8]
400113bc:	e1a03103 	lsl	r3, r3, #2
400113c0:	e1a01103 	lsl	r1, r3, #2
400113c4:	e0833001 	add	r3, r3, r1
400113c8:	e1a01103 	lsl	r1, r3, #2
400113cc:	e0833001 	add	r3, r3, r1
400113d0:	e0823003 	add	r3, r2, r3
400113d4:	e2833004 	add	r3, r3, #4
400113d8:	e3a02501 	mov	r2, #4194304	; 0x400000
400113dc:	e5832000 	str	r2, [r3]
400113e0:	e3012a4c 	movw	r2, #6732	; 0x1a4c
400113e4:	e3402000 	movt	r2, #0
400113e8:	e51b3008 	ldr	r3, [fp, #-8]
400113ec:	e1a03103 	lsl	r3, r3, #2
400113f0:	e1a01103 	lsl	r1, r3, #2
400113f4:	e0833001 	add	r3, r3, r1
400113f8:	e1a01103 	lsl	r1, r3, #2
400113fc:	e0833001 	add	r3, r3, r1
40011400:	e0823003 	add	r3, r2, r3
40011404:	e3a0205f 	mov	r2, #95	; 0x5f
40011408:	e5832000 	str	r2, [r3]
4001140c:	e51b1008 	ldr	r1, [fp, #-8]
40011410:	e3012a4c 	movw	r2, #6732	; 0x1a4c
40011414:	e3402000 	movt	r2, #0
40011418:	e51b3008 	ldr	r3, [fp, #-8]
4001141c:	e1a03103 	lsl	r3, r3, #2
40011420:	e1a00103 	lsl	r0, r3, #2
40011424:	e0833000 	add	r3, r3, r0
40011428:	e1a00103 	lsl	r0, r3, #2
4001142c:	e0833000 	add	r3, r3, r0
40011430:	e0823003 	add	r3, r2, r3
40011434:	e2833048 	add	r3, r3, #72	; 0x48
40011438:	e5831000 	str	r1, [r3]
4001143c:	e51b1008 	ldr	r1, [fp, #-8]
40011440:	e3012a4c 	movw	r2, #6732	; 0x1a4c
40011444:	e3402000 	movt	r2, #0
40011448:	e51b3008 	ldr	r3, [fp, #-8]
4001144c:	e1a03103 	lsl	r3, r3, #2
40011450:	e1a00103 	lsl	r0, r3, #2
40011454:	e0833000 	add	r3, r3, r0
40011458:	e1a00103 	lsl	r0, r3, #2
4001145c:	e0833000 	add	r3, r3, r0
40011460:	e0823003 	add	r3, r2, r3
40011464:	e2833048 	add	r3, r3, #72	; 0x48
40011468:	e5831004 	str	r1, [r3, #4]
4001146c:	e51b1008 	ldr	r1, [fp, #-8]
40011470:	e3012a4c 	movw	r2, #6732	; 0x1a4c
40011474:	e3402000 	movt	r2, #0
40011478:	e51b3008 	ldr	r3, [fp, #-8]
4001147c:	e1a03103 	lsl	r3, r3, #2
40011480:	e1a00103 	lsl	r0, r3, #2
40011484:	e0833000 	add	r3, r3, r0
40011488:	e1a00103 	lsl	r0, r3, #2
4001148c:	e0833000 	add	r3, r3, r0
40011490:	e0823003 	add	r3, r2, r3
40011494:	e2833050 	add	r3, r3, #80	; 0x50
40011498:	e5831000 	str	r1, [r3]
4001149c:	e3012a4c 	movw	r2, #6732	; 0x1a4c
400114a0:	e3402000 	movt	r2, #0
400114a4:	e51b3008 	ldr	r3, [fp, #-8]
400114a8:	e1a03103 	lsl	r3, r3, #2
400114ac:	e1a01103 	lsl	r1, r3, #2
400114b0:	e0833001 	add	r3, r3, r1
400114b4:	e1a01103 	lsl	r1, r3, #2
400114b8:	e0833001 	add	r3, r3, r1
400114bc:	e0823003 	add	r3, r2, r3
400114c0:	e2833050 	add	r3, r3, #80	; 0x50
400114c4:	e3a02000 	mov	r2, #0
400114c8:	e5832004 	str	r2, [r3, #4]
400114cc:	e51b3008 	ldr	r3, [fp, #-8]
400114d0:	e2433001 	sub	r3, r3, #1
400114d4:	e1a00003 	mov	r0, r3
400114d8:	e3012a4c 	movw	r2, #6732	; 0x1a4c
400114dc:	e3402000 	movt	r2, #0
400114e0:	e51b3008 	ldr	r3, [fp, #-8]
400114e4:	e1a03103 	lsl	r3, r3, #2
400114e8:	e1a01103 	lsl	r1, r3, #2
400114ec:	e0833001 	add	r3, r3, r1
400114f0:	e1a01103 	lsl	r1, r3, #2
400114f4:	e0833001 	add	r3, r3, r1
400114f8:	e0823003 	add	r3, r2, r3
400114fc:	e2833058 	add	r3, r3, #88	; 0x58
40011500:	e5830000 	str	r0, [r3]
40011504:	e3012a4c 	movw	r2, #6732	; 0x1a4c
40011508:	e3402000 	movt	r2, #0
4001150c:	e51b3008 	ldr	r3, [fp, #-8]
40011510:	e1a03103 	lsl	r3, r3, #2
40011514:	e1a01103 	lsl	r1, r3, #2
40011518:	e0833001 	add	r3, r3, r1
4001151c:	e1a01103 	lsl	r1, r3, #2
40011520:	e0833001 	add	r3, r3, r1
40011524:	e0823003 	add	r3, r2, r3
40011528:	e2833058 	add	r3, r3, #88	; 0x58
4001152c:	e3a02000 	mov	r2, #0
40011530:	e5832004 	str	r2, [r3, #4]
40011534:	e3012a4c 	movw	r2, #6732	; 0x1a4c
40011538:	e3402000 	movt	r2, #0
4001153c:	e51b3008 	ldr	r3, [fp, #-8]
40011540:	e1a03103 	lsl	r3, r3, #2
40011544:	e1a01103 	lsl	r1, r3, #2
40011548:	e0833001 	add	r3, r3, r1
4001154c:	e1a01103 	lsl	r1, r3, #2
40011550:	e0833001 	add	r3, r3, r1
40011554:	e0823003 	add	r3, r2, r3
40011558:	e2833060 	add	r3, r3, #96	; 0x60
4001155c:	e3a02000 	mov	r2, #0
40011560:	e5832000 	str	r2, [r3]
40011564:	e51b3008 	ldr	r3, [fp, #-8]
40011568:	e2833001 	add	r3, r3, #1
4001156c:	e50b3008 	str	r3, [fp, #-8]
40011570:	e51b3008 	ldr	r3, [fp, #-8]
40011574:	e353000f 	cmp	r3, #15
40011578:	daffff73 	ble	4001134c <__bss_end+0xc58>
4001157c:	e30108c4 	movw	r0, #6340	; 0x18c4
40011580:	e3400000 	movt	r0, #0
40011584:	eb0000e1 	bl	40011910 <__bss_end+0x121c>
40011588:	e59f0098 	ldr	r0, [pc, #152]	; 40011628 <__bss_end+0xf34>
4001158c:	eb0000df 	bl	40011910 <__bss_end+0x121c>
40011590:	e3023090 	movw	r3, #8336	; 0x2090
40011594:	e3403000 	movt	r3, #0
40011598:	e30128c4 	movw	r2, #6340	; 0x18c4
4001159c:	e3402000 	movt	r2, #0
400115a0:	e5832000 	str	r2, [r3]
400115a4:	e302308c 	movw	r3, #8332	; 0x208c
400115a8:	e3403000 	movt	r3, #0
400115ac:	e59f2074 	ldr	r2, [pc, #116]	; 40011628 <__bss_end+0xf34>
400115b0:	e5832000 	str	r2, [r3]
400115b4:	e3a03001 	mov	r3, #1
400115b8:	e50b3008 	str	r3, [fp, #-8]
400115bc:	ea000011 	b	40011608 <__bss_end+0xf14>
400115c0:	e3023090 	movw	r3, #8336	; 0x2090
400115c4:	e3403000 	movt	r3, #0
400115c8:	e5931000 	ldr	r1, [r3]
400115cc:	e51b3008 	ldr	r3, [fp, #-8]
400115d0:	e1a03103 	lsl	r3, r3, #2
400115d4:	e1a02103 	lsl	r2, r3, #2
400115d8:	e0833002 	add	r3, r3, r2
400115dc:	e1a02103 	lsl	r2, r3, #2
400115e0:	e0833002 	add	r3, r3, r2
400115e4:	e3012a4c 	movw	r2, #6732	; 0x1a4c
400115e8:	e3402000 	movt	r2, #0
400115ec:	e0833002 	add	r3, r3, r2
400115f0:	e1a00001 	mov	r0, r1
400115f4:	e1a01003 	mov	r1, r3
400115f8:	eb0000e0 	bl	40011980 <__bss_end+0x128c>
400115fc:	e51b3008 	ldr	r3, [fp, #-8]
40011600:	e2833001 	add	r3, r3, #1
40011604:	e50b3008 	str	r3, [fp, #-8]
40011608:	e51b3008 	ldr	r3, [fp, #-8]
4001160c:	e353000f 	cmp	r3, #15
40011610:	daffffea 	ble	400115c0 <__bss_end+0xecc>
40011614:	e30200a0 	movw	r0, #8352	; 0x20a0
40011618:	e3400000 	movt	r0, #0
4001161c:	eb00011d 	bl	40011a98 <__bss_end+0x13a4>
40011620:	e24bd004 	sub	sp, fp, #4
40011624:	e8bd8800 	pop	{fp, pc}
40011628:	00001988 	andeq	r1, r0, r8, lsl #19
4001162c:	e92d4800 	push	{fp, lr}
40011630:	e28db004 	add	fp, sp, #4
40011634:	e24dd008 	sub	sp, sp, #8
40011638:	e3023090 	movw	r3, #8336	; 0x2090
4001163c:	e3403000 	movt	r3, #0
40011640:	e5933000 	ldr	r3, [r3]
40011644:	e1a00003 	mov	r0, r3
40011648:	eb0000e4 	bl	400119e0 <__bss_end+0x12ec>
4001164c:	e1a02000 	mov	r2, r0
40011650:	e3023094 	movw	r3, #8340	; 0x2094
40011654:	e3403000 	movt	r3, #0
40011658:	e5832000 	str	r2, [r3]
4001165c:	e3023094 	movw	r3, #8340	; 0x2094
40011660:	e3403000 	movt	r3, #0
40011664:	e5933000 	ldr	r3, [r3]
40011668:	e3530000 	cmp	r3, #0
4001166c:	1a000016 	bne	400116cc <__bss_end+0xfd8>
40011670:	e3023090 	movw	r3, #8336	; 0x2090
40011674:	e3403000 	movt	r3, #0
40011678:	e5933000 	ldr	r3, [r3]
4001167c:	e50b3008 	str	r3, [fp, #-8]
40011680:	e302308c 	movw	r3, #8332	; 0x208c
40011684:	e3403000 	movt	r3, #0
40011688:	e5932000 	ldr	r2, [r3]
4001168c:	e3023090 	movw	r3, #8336	; 0x2090
40011690:	e3403000 	movt	r3, #0
40011694:	e5832000 	str	r2, [r3]
40011698:	e302308c 	movw	r3, #8332	; 0x208c
4001169c:	e3403000 	movt	r3, #0
400116a0:	e51b2008 	ldr	r2, [fp, #-8]
400116a4:	e5832000 	str	r2, [r3]
400116a8:	e3023090 	movw	r3, #8336	; 0x2090
400116ac:	e3403000 	movt	r3, #0
400116b0:	e5933000 	ldr	r3, [r3]
400116b4:	e1a00003 	mov	r0, r3
400116b8:	eb0000c8 	bl	400119e0 <__bss_end+0x12ec>
400116bc:	e1a02000 	mov	r2, r0
400116c0:	e3023094 	movw	r3, #8340	; 0x2094
400116c4:	e3403000 	movt	r3, #0
400116c8:	e5832000 	str	r2, [r3]
400116cc:	e3023094 	movw	r3, #8340	; 0x2094
400116d0:	e3403000 	movt	r3, #0
400116d4:	e5932000 	ldr	r2, [r3]
400116d8:	e302309c 	movw	r3, #8348	; 0x209c
400116dc:	e3403000 	movt	r3, #0
400116e0:	e5832000 	str	r2, [r3]
400116e4:	ebfffe75 	bl	400110c0 <__bss_end+0x9cc>
400116e8:	e3023094 	movw	r3, #8340	; 0x2094
400116ec:	e3403000 	movt	r3, #0
400116f0:	e5933000 	ldr	r3, [r3]
400116f4:	e1a00003 	mov	r0, r3
400116f8:	ebfffd35 	bl	40010bd4 <__bss_end+0x4e0>
400116fc:	e3023094 	movw	r3, #8340	; 0x2094
40011700:	e3403000 	movt	r3, #0
40011704:	e5933000 	ldr	r3, [r3]
40011708:	e5933048 	ldr	r3, [r3, #72]	; 0x48
4001170c:	e1a00003 	mov	r0, r3
40011710:	ebfffd2f 	bl	40010bd4 <__bss_end+0x4e0>
40011714:	e3023094 	movw	r3, #8340	; 0x2094
40011718:	e3403000 	movt	r3, #0
4001171c:	e5933000 	ldr	r3, [r3]
40011720:	e5933048 	ldr	r3, [r3, #72]	; 0x48
40011724:	e3530000 	cmp	r3, #0
40011728:	1a000005 	bne	40011744 <__bss_end+0x1050>
4001172c:	e3a00010 	mov	r0, #16
40011730:	e3400010 	movt	r0, #16
40011734:	e3041471 	movw	r1, #17521	; 0x4471
40011738:	e3441000 	movt	r1, #16384	; 0x4000
4001173c:	ebfffe68 	bl	400110e4 <__bss_end+0x9f0>
40011740:	ea000017 	b	400117a4 <__bss_end+0x10b0>
40011744:	e3023094 	movw	r3, #8340	; 0x2094
40011748:	e3403000 	movt	r3, #0
4001174c:	e5933000 	ldr	r3, [r3]
40011750:	e5933048 	ldr	r3, [r3, #72]	; 0x48
40011754:	e3530001 	cmp	r3, #1
40011758:	1a000005 	bne	40011774 <__bss_end+0x1080>
4001175c:	e3a00010 	mov	r0, #16
40011760:	e3400010 	movt	r0, #16
40011764:	e3041871 	movw	r1, #18545	; 0x4871
40011768:	e3441000 	movt	r1, #16384	; 0x4000
4001176c:	ebfffe5c 	bl	400110e4 <__bss_end+0x9f0>
40011770:	ea00000b 	b	400117a4 <__bss_end+0x10b0>
40011774:	e3023094 	movw	r3, #8340	; 0x2094
40011778:	e3403000 	movt	r3, #0
4001177c:	e5933000 	ldr	r3, [r3]
40011780:	e5933048 	ldr	r3, [r3, #72]	; 0x48
40011784:	e2833601 	add	r3, r3, #1048576	; 0x100000
40011788:	e2833012 	add	r3, r3, #18
4001178c:	e1a03503 	lsl	r3, r3, #10
40011790:	e3833071 	orr	r3, r3, #113	; 0x71
40011794:	e3a00010 	mov	r0, #16
40011798:	e3400010 	movt	r0, #16
4001179c:	e1a01003 	mov	r1, r3
400117a0:	ebfffe4f 	bl	400110e4 <__bss_end+0x9f0>
400117a4:	e24bd004 	sub	sp, fp, #4
400117a8:	e8bd8800 	pop	{fp, pc}
400117ac:	e52db004 	push	{fp}		; (str fp, [sp, #-4]!)
400117b0:	e28db000 	add	fp, sp, #0
400117b4:	e24dd00c 	sub	sp, sp, #12
400117b8:	e50b0008 	str	r0, [fp, #-8]
400117bc:	e51b3008 	ldr	r3, [fp, #-8]
400117c0:	e3a02000 	mov	r2, #0
400117c4:	e5832000 	str	r2, [r3]
400117c8:	e51b3008 	ldr	r3, [fp, #-8]
400117cc:	e3a02000 	mov	r2, #0
400117d0:	e5832004 	str	r2, [r3, #4]
400117d4:	e51b3008 	ldr	r3, [fp, #-8]
400117d8:	e3a02000 	mov	r2, #0
400117dc:	e5832008 	str	r2, [r3, #8]
400117e0:	e24bd000 	sub	sp, fp, #0
400117e4:	e49db004 	pop	{fp}		; (ldr fp, [sp], #4)
400117e8:	e12fff1e 	bx	lr
400117ec:	e52db004 	push	{fp}		; (str fp, [sp, #-4]!)
400117f0:	e28db000 	add	fp, sp, #0
400117f4:	e24dd00c 	sub	sp, sp, #12
400117f8:	e50b0008 	str	r0, [fp, #-8]
400117fc:	e50b100c 	str	r1, [fp, #-12]
40011800:	e51b3008 	ldr	r3, [fp, #-8]
40011804:	e5933008 	ldr	r3, [r3, #8]
40011808:	e3530000 	cmp	r3, #0
4001180c:	1a000006 	bne	4001182c <__bss_end+0x1138>
40011810:	e51b3008 	ldr	r3, [fp, #-8]
40011814:	e51b200c 	ldr	r2, [fp, #-12]
40011818:	e5832000 	str	r2, [r3]
4001181c:	e51b3008 	ldr	r3, [fp, #-8]
40011820:	e51b200c 	ldr	r2, [fp, #-12]
40011824:	e5832004 	str	r2, [r3, #4]
40011828:	ea000006 	b	40011848 <__bss_end+0x1154>
4001182c:	e51b3008 	ldr	r3, [fp, #-8]
40011830:	e5933004 	ldr	r3, [r3, #4]
40011834:	e51b200c 	ldr	r2, [fp, #-12]
40011838:	e583205c 	str	r2, [r3, #92]	; 0x5c
4001183c:	e51b3008 	ldr	r3, [fp, #-8]
40011840:	e51b200c 	ldr	r2, [fp, #-12]
40011844:	e5832004 	str	r2, [r3, #4]
40011848:	e51b3008 	ldr	r3, [fp, #-8]
4001184c:	e5933008 	ldr	r3, [r3, #8]
40011850:	e2832001 	add	r2, r3, #1
40011854:	e51b3008 	ldr	r3, [fp, #-8]
40011858:	e5832008 	str	r2, [r3, #8]
4001185c:	e24bd000 	sub	sp, fp, #0
40011860:	e49db004 	pop	{fp}		; (ldr fp, [sp], #4)
40011864:	e12fff1e 	bx	lr
40011868:	e52db004 	push	{fp}		; (str fp, [sp, #-4]!)
4001186c:	e28db000 	add	fp, sp, #0
40011870:	e24dd014 	sub	sp, sp, #20
40011874:	e50b0010 	str	r0, [fp, #-16]
40011878:	e51b3010 	ldr	r3, [fp, #-16]
4001187c:	e5933008 	ldr	r3, [r3, #8]
40011880:	e3530000 	cmp	r3, #0
40011884:	1a000001 	bne	40011890 <__bss_end+0x119c>
40011888:	e3a03000 	mov	r3, #0
4001188c:	ea00001b 	b	40011900 <__bss_end+0x120c>
40011890:	e51b3010 	ldr	r3, [fp, #-16]
40011894:	e5933008 	ldr	r3, [r3, #8]
40011898:	e3530001 	cmp	r3, #1
4001189c:	1a000009 	bne	400118c8 <__bss_end+0x11d4>
400118a0:	e51b3010 	ldr	r3, [fp, #-16]
400118a4:	e5933000 	ldr	r3, [r3]
400118a8:	e50b3008 	str	r3, [fp, #-8]
400118ac:	e51b3010 	ldr	r3, [fp, #-16]
400118b0:	e3a02000 	mov	r2, #0
400118b4:	e5832000 	str	r2, [r3]
400118b8:	e51b3010 	ldr	r3, [fp, #-16]
400118bc:	e3a02000 	mov	r2, #0
400118c0:	e5832004 	str	r2, [r3, #4]
400118c4:	ea000007 	b	400118e8 <__bss_end+0x11f4>
400118c8:	e51b3010 	ldr	r3, [fp, #-16]
400118cc:	e5933000 	ldr	r3, [r3]
400118d0:	e50b3008 	str	r3, [fp, #-8]
400118d4:	e51b3010 	ldr	r3, [fp, #-16]
400118d8:	e5933000 	ldr	r3, [r3]
400118dc:	e593205c 	ldr	r2, [r3, #92]	; 0x5c
400118e0:	e51b3010 	ldr	r3, [fp, #-16]
400118e4:	e5832000 	str	r2, [r3]
400118e8:	e51b3010 	ldr	r3, [fp, #-16]
400118ec:	e5933008 	ldr	r3, [r3, #8]
400118f0:	e2432001 	sub	r2, r3, #1
400118f4:	e51b3010 	ldr	r3, [fp, #-16]
400118f8:	e5832008 	str	r2, [r3, #8]
400118fc:	e51b3008 	ldr	r3, [fp, #-8]
40011900:	e1a00003 	mov	r0, r3
40011904:	e24bd000 	sub	sp, fp, #0
40011908:	e49db004 	pop	{fp}		; (ldr fp, [sp], #4)
4001190c:	e12fff1e 	bx	lr
40011910:	e92d4800 	push	{fp, lr}
40011914:	e28db004 	add	fp, sp, #4
40011918:	e24dd010 	sub	sp, sp, #16
4001191c:	e50b0010 	str	r0, [fp, #-16]
40011920:	e3a03000 	mov	r3, #0
40011924:	e50b3008 	str	r3, [fp, #-8]
40011928:	ea00000c 	b	40011960 <__bss_end+0x126c>
4001192c:	e51b3008 	ldr	r3, [fp, #-8]
40011930:	e1a02003 	mov	r2, r3
40011934:	e1a03102 	lsl	r3, r2, #2
40011938:	e1a02003 	mov	r2, r3
4001193c:	e1a03102 	lsl	r3, r2, #2
40011940:	e0623003 	rsb	r3, r2, r3
40011944:	e51b2010 	ldr	r2, [fp, #-16]
40011948:	e0823003 	add	r3, r2, r3
4001194c:	e1a00003 	mov	r0, r3
40011950:	ebffff95 	bl	400117ac <__bss_end+0x10b8>
40011954:	e51b3008 	ldr	r3, [fp, #-8]
40011958:	e2833001 	add	r3, r3, #1
4001195c:	e50b3008 	str	r3, [fp, #-8]
40011960:	e51b3008 	ldr	r3, [fp, #-8]
40011964:	e353000f 	cmp	r3, #15
40011968:	daffffef 	ble	4001192c <__bss_end+0x1238>
4001196c:	e51b3010 	ldr	r3, [fp, #-16]
40011970:	e3a02000 	mov	r2, #0
40011974:	e58320c0 	str	r2, [r3, #192]	; 0xc0
40011978:	e24bd004 	sub	sp, fp, #4
4001197c:	e8bd8800 	pop	{fp, pc}
40011980:	e92d4800 	push	{fp, lr}
40011984:	e28db004 	add	fp, sp, #4
40011988:	e24dd008 	sub	sp, sp, #8
4001198c:	e50b0008 	str	r0, [fp, #-8]
40011990:	e50b100c 	str	r1, [fp, #-12]
40011994:	e51b300c 	ldr	r3, [fp, #-12]
40011998:	e5933058 	ldr	r3, [r3, #88]	; 0x58
4001199c:	e1a02003 	mov	r2, r3
400119a0:	e1a03102 	lsl	r3, r2, #2
400119a4:	e1a02003 	mov	r2, r3
400119a8:	e1a03102 	lsl	r3, r2, #2
400119ac:	e0623003 	rsb	r3, r2, r3
400119b0:	e51b2008 	ldr	r2, [fp, #-8]
400119b4:	e0823003 	add	r3, r2, r3
400119b8:	e1a00003 	mov	r0, r3
400119bc:	e51b100c 	ldr	r1, [fp, #-12]
400119c0:	ebffff89 	bl	400117ec <__bss_end+0x10f8>
400119c4:	e51b3008 	ldr	r3, [fp, #-8]
400119c8:	e59330c0 	ldr	r3, [r3, #192]	; 0xc0
400119cc:	e2832001 	add	r2, r3, #1
400119d0:	e51b3008 	ldr	r3, [fp, #-8]
400119d4:	e58320c0 	str	r2, [r3, #192]	; 0xc0
400119d8:	e24bd004 	sub	sp, fp, #4
400119dc:	e8bd8800 	pop	{fp, pc}
400119e0:	e92d4800 	push	{fp, lr}
400119e4:	e28db004 	add	fp, sp, #4
400119e8:	e24dd010 	sub	sp, sp, #16
400119ec:	e50b0010 	str	r0, [fp, #-16]
400119f0:	e51b3010 	ldr	r3, [fp, #-16]
400119f4:	e59330c0 	ldr	r3, [r3, #192]	; 0xc0
400119f8:	e3530000 	cmp	r3, #0
400119fc:	1a000001 	bne	40011a08 <__bss_end+0x1314>
40011a00:	e3a03000 	mov	r3, #0
40011a04:	ea000020 	b	40011a8c <__bss_end+0x1398>
40011a08:	e3a03000 	mov	r3, #0
40011a0c:	e50b3008 	str	r3, [fp, #-8]
40011a10:	ea000011 	b	40011a5c <__bss_end+0x1368>
40011a14:	e51b3008 	ldr	r3, [fp, #-8]
40011a18:	e1a02003 	mov	r2, r3
40011a1c:	e1a03102 	lsl	r3, r2, #2
40011a20:	e1a02003 	mov	r2, r3
40011a24:	e1a03102 	lsl	r3, r2, #2
40011a28:	e0623003 	rsb	r3, r2, r3
40011a2c:	e51b2010 	ldr	r2, [fp, #-16]
40011a30:	e0823003 	add	r3, r2, r3
40011a34:	e1a00003 	mov	r0, r3
40011a38:	ebffff8a 	bl	40011868 <__bss_end+0x1174>
40011a3c:	e50b000c 	str	r0, [fp, #-12]
40011a40:	e51b300c 	ldr	r3, [fp, #-12]
40011a44:	e3530000 	cmp	r3, #0
40011a48:	0a000000 	beq	40011a50 <__bss_end+0x135c>
40011a4c:	ea000005 	b	40011a68 <__bss_end+0x1374>
40011a50:	e51b3008 	ldr	r3, [fp, #-8]
40011a54:	e2833001 	add	r3, r3, #1
40011a58:	e50b3008 	str	r3, [fp, #-8]
40011a5c:	e51b3008 	ldr	r3, [fp, #-8]
40011a60:	e353000f 	cmp	r3, #15
40011a64:	daffffea 	ble	40011a14 <__bss_end+0x1320>
40011a68:	e51b3010 	ldr	r3, [fp, #-16]
40011a6c:	e59330c0 	ldr	r3, [r3, #192]	; 0xc0
40011a70:	e2432001 	sub	r2, r3, #1
40011a74:	e51b3010 	ldr	r3, [fp, #-16]
40011a78:	e58320c0 	str	r2, [r3, #192]	; 0xc0
40011a7c:	e51b300c 	ldr	r3, [fp, #-12]
40011a80:	e3a02000 	mov	r2, #0
40011a84:	e583205c 	str	r2, [r3, #92]	; 0x5c
40011a88:	e51b300c 	ldr	r3, [fp, #-12]
40011a8c:	e1a00003 	mov	r0, r3
40011a90:	e24bd004 	sub	sp, fp, #4
40011a94:	e8bd8800 	pop	{fp, pc}
40011a98:	e52db004 	push	{fp}		; (str fp, [sp, #-4]!)
40011a9c:	e28db000 	add	fp, sp, #0
40011aa0:	e24dd00c 	sub	sp, sp, #12
40011aa4:	e50b0008 	str	r0, [fp, #-8]
40011aa8:	e51b3008 	ldr	r3, [fp, #-8]
40011aac:	e3a02000 	mov	r2, #0
40011ab0:	e5832000 	str	r2, [r3]
40011ab4:	e51b3008 	ldr	r3, [fp, #-8]
40011ab8:	e3a02000 	mov	r2, #0
40011abc:	e5832004 	str	r2, [r3, #4]
40011ac0:	e51b3008 	ldr	r3, [fp, #-8]
40011ac4:	e3e02000 	mvn	r2, #0
40011ac8:	e5832008 	str	r2, [r3, #8]
40011acc:	e24bd000 	sub	sp, fp, #0
40011ad0:	e49db004 	pop	{fp}		; (ldr fp, [sp], #4)
40011ad4:	e12fff1e 	bx	lr
40011ad8:	e52db004 	push	{fp}		; (str fp, [sp, #-4]!)
40011adc:	e28db000 	add	fp, sp, #0
40011ae0:	e24dd014 	sub	sp, sp, #20
40011ae4:	e50b0010 	str	r0, [fp, #-16]
40011ae8:	e50b1014 	str	r1, [fp, #-20]	; 0xffffffec
40011aec:	e51b3010 	ldr	r3, [fp, #-16]
40011af0:	e5933004 	ldr	r3, [r3, #4]
40011af4:	e3530000 	cmp	r3, #0
40011af8:	1a000007 	bne	40011b1c <__bss_end+0x1428>
40011afc:	e51b3010 	ldr	r3, [fp, #-16]
40011b00:	e51b2014 	ldr	r2, [fp, #-20]	; 0xffffffec
40011b04:	e5832000 	str	r2, [r3]
40011b08:	e51b3014 	ldr	r3, [fp, #-20]	; 0xffffffec
40011b0c:	e5932060 	ldr	r2, [r3, #96]	; 0x60
40011b10:	e51b3010 	ldr	r3, [fp, #-16]
40011b14:	e5832008 	str	r2, [r3, #8]
40011b18:	ea000034 	b	40011bf0 <__bss_end+0x14fc>
40011b1c:	e51b3014 	ldr	r3, [fp, #-20]	; 0xffffffec
40011b20:	e5932060 	ldr	r2, [r3, #96]	; 0x60
40011b24:	e51b3010 	ldr	r3, [fp, #-16]
40011b28:	e5933008 	ldr	r3, [r3, #8]
40011b2c:	e1520003 	cmp	r2, r3
40011b30:	2a00000b 	bcs	40011b64 <__bss_end+0x1470>
40011b34:	e51b3010 	ldr	r3, [fp, #-16]
40011b38:	e5932000 	ldr	r2, [r3]
40011b3c:	e51b3014 	ldr	r3, [fp, #-20]	; 0xffffffec
40011b40:	e583205c 	str	r2, [r3, #92]	; 0x5c
40011b44:	e51b3010 	ldr	r3, [fp, #-16]
40011b48:	e51b2014 	ldr	r2, [fp, #-20]	; 0xffffffec
40011b4c:	e5832000 	str	r2, [r3]
40011b50:	e51b3014 	ldr	r3, [fp, #-20]	; 0xffffffec
40011b54:	e5932060 	ldr	r2, [r3, #96]	; 0x60
40011b58:	e51b3010 	ldr	r3, [fp, #-16]
40011b5c:	e5832008 	str	r2, [r3, #8]
40011b60:	ea000022 	b	40011bf0 <__bss_end+0x14fc>
40011b64:	e51b3010 	ldr	r3, [fp, #-16]
40011b68:	e5933000 	ldr	r3, [r3]
40011b6c:	e50b3008 	str	r3, [fp, #-8]
40011b70:	e51b3008 	ldr	r3, [fp, #-8]
40011b74:	e593305c 	ldr	r3, [r3, #92]	; 0x5c
40011b78:	e3530000 	cmp	r3, #0
40011b7c:	1a000003 	bne	40011b90 <__bss_end+0x149c>
40011b80:	e51b3008 	ldr	r3, [fp, #-8]
40011b84:	e51b2014 	ldr	r2, [fp, #-20]	; 0xffffffec
40011b88:	e583205c 	str	r2, [r3, #92]	; 0x5c
40011b8c:	ea000012 	b	40011bdc <__bss_end+0x14e8>
40011b90:	e51b3014 	ldr	r3, [fp, #-20]	; 0xffffffec
40011b94:	e5932060 	ldr	r2, [r3, #96]	; 0x60
40011b98:	e51b3008 	ldr	r3, [fp, #-8]
40011b9c:	e593305c 	ldr	r3, [r3, #92]	; 0x5c
40011ba0:	e5933060 	ldr	r3, [r3, #96]	; 0x60
40011ba4:	e1520003 	cmp	r2, r3
40011ba8:	8a000007 	bhi	40011bcc <__bss_end+0x14d8>
40011bac:	e51b3008 	ldr	r3, [fp, #-8]
40011bb0:	e593205c 	ldr	r2, [r3, #92]	; 0x5c
40011bb4:	e51b3014 	ldr	r3, [fp, #-20]	; 0xffffffec
40011bb8:	e583205c 	str	r2, [r3, #92]	; 0x5c
40011bbc:	e51b3008 	ldr	r3, [fp, #-8]
40011bc0:	e51b2014 	ldr	r2, [fp, #-20]	; 0xffffffec
40011bc4:	e583205c 	str	r2, [r3, #92]	; 0x5c
40011bc8:	ea000003 	b	40011bdc <__bss_end+0x14e8>
40011bcc:	e51b3008 	ldr	r3, [fp, #-8]
40011bd0:	e593305c 	ldr	r3, [r3, #92]	; 0x5c
40011bd4:	e50b3008 	str	r3, [fp, #-8]
40011bd8:	eaffffe4 	b	40011b70 <__bss_end+0x147c>
40011bdc:	e51b3010 	ldr	r3, [fp, #-16]
40011be0:	e5933004 	ldr	r3, [r3, #4]
40011be4:	e2832001 	add	r2, r3, #1
40011be8:	e51b3010 	ldr	r3, [fp, #-16]
40011bec:	e5832004 	str	r2, [r3, #4]
40011bf0:	e24bd000 	sub	sp, fp, #0
40011bf4:	e49db004 	pop	{fp}		; (ldr fp, [sp], #4)
40011bf8:	e12fff1e 	bx	lr
40011bfc:	e52db004 	push	{fp}		; (str fp, [sp, #-4]!)
40011c00:	e28db000 	add	fp, sp, #0
40011c04:	e24dd014 	sub	sp, sp, #20
40011c08:	e50b0010 	str	r0, [fp, #-16]
40011c0c:	e50b1014 	str	r1, [fp, #-20]	; 0xffffffec
40011c10:	e3a03000 	mov	r3, #0
40011c14:	e50b3008 	str	r3, [fp, #-8]
40011c18:	e51b3010 	ldr	r3, [fp, #-16]
40011c1c:	e5933004 	ldr	r3, [r3, #4]
40011c20:	e3530000 	cmp	r3, #0
40011c24:	1a000001 	bne	40011c30 <__bss_end+0x153c>
40011c28:	e3e03000 	mvn	r3, #0
40011c2c:	ea000022 	b	40011cbc <__bss_end+0x15c8>
40011c30:	e51b3010 	ldr	r3, [fp, #-16]
40011c34:	e5932008 	ldr	r2, [r3, #8]
40011c38:	e51b3014 	ldr	r3, [fp, #-20]	; 0xffffffec
40011c3c:	e1520003 	cmp	r2, r3
40011c40:	8a00001c 	bhi	40011cb8 <__bss_end+0x15c4>
40011c44:	e51b3010 	ldr	r3, [fp, #-16]
40011c48:	e5933000 	ldr	r3, [r3]
40011c4c:	e50b3008 	str	r3, [fp, #-8]
40011c50:	e51b3010 	ldr	r3, [fp, #-16]
40011c54:	e5933000 	ldr	r3, [r3]
40011c58:	e593205c 	ldr	r2, [r3, #92]	; 0x5c
40011c5c:	e51b3010 	ldr	r3, [fp, #-16]
40011c60:	e5832000 	str	r2, [r3]
40011c64:	e51b3010 	ldr	r3, [fp, #-16]
40011c68:	e5933000 	ldr	r3, [r3]
40011c6c:	e3530000 	cmp	r3, #0
40011c70:	0a000005 	beq	40011c8c <__bss_end+0x1598>
40011c74:	e51b3010 	ldr	r3, [fp, #-16]
40011c78:	e5933000 	ldr	r3, [r3]
40011c7c:	e5932060 	ldr	r2, [r3, #96]	; 0x60
40011c80:	e51b3010 	ldr	r3, [fp, #-16]
40011c84:	e5832008 	str	r2, [r3, #8]
40011c88:	ea000002 	b	40011c98 <__bss_end+0x15a4>
40011c8c:	e51b3010 	ldr	r3, [fp, #-16]
40011c90:	e3e02000 	mvn	r2, #0
40011c94:	e5832008 	str	r2, [r3, #8]
40011c98:	e51b3010 	ldr	r3, [fp, #-16]
40011c9c:	e5933004 	ldr	r3, [r3, #4]
40011ca0:	e2432001 	sub	r2, r3, #1
40011ca4:	e51b3010 	ldr	r3, [fp, #-16]
40011ca8:	e5832004 	str	r2, [r3, #4]
40011cac:	e51b3008 	ldr	r3, [fp, #-8]
40011cb0:	e3a02000 	mov	r2, #0
40011cb4:	e583205c 	str	r2, [r3, #92]	; 0x5c
40011cb8:	e51b3008 	ldr	r3, [fp, #-8]
40011cbc:	e1a00003 	mov	r0, r3
40011cc0:	e24bd000 	sub	sp, fp, #0
40011cc4:	e49db004 	pop	{fp}		; (ldr fp, [sp], #4)
40011cc8:	e12fff1e 	bx	lr
40011ccc:	e92d4800 	push	{fp, lr}
40011cd0:	e28db004 	add	fp, sp, #4
40011cd4:	e24dd008 	sub	sp, sp, #8
40011cd8:	e50b0008 	str	r0, [fp, #-8]
40011cdc:	e3023094 	movw	r3, #8340	; 0x2094
40011ce0:	e3403000 	movt	r3, #0
40011ce4:	e5933000 	ldr	r3, [r3]
40011ce8:	e51b0008 	ldr	r0, [fp, #-8]
40011cec:	e1a01003 	mov	r1, r3
40011cf0:	ebffff22 	bl	40011980 <__bss_end+0x128c>
40011cf4:	e3023094 	movw	r3, #8340	; 0x2094
40011cf8:	e3403000 	movt	r3, #0
40011cfc:	e5933000 	ldr	r3, [r3]
40011d00:	e3a02001 	mov	r2, #1
40011d04:	e5832054 	str	r2, [r3, #84]	; 0x54
40011d08:	e24bd004 	sub	sp, fp, #4
40011d0c:	e8bd8800 	pop	{fp, pc}
40011d10:	e92d4800 	push	{fp, lr}
40011d14:	e28db004 	add	fp, sp, #4
40011d18:	e24dd010 	sub	sp, sp, #16
40011d1c:	e50b0010 	str	r0, [fp, #-16]
40011d20:	e51b0010 	ldr	r0, [fp, #-16]
40011d24:	ebffff2d 	bl	400119e0 <__bss_end+0x12ec>
40011d28:	e50b0008 	str	r0, [fp, #-8]
40011d2c:	e51b3008 	ldr	r3, [fp, #-8]
40011d30:	e3530000 	cmp	r3, #0
40011d34:	1a000000 	bne	40011d3c <__bss_end+0x1648>
40011d38:	ea000012 	b	40011d88 <__bss_end+0x1694>
40011d3c:	e3023090 	movw	r3, #8336	; 0x2090
40011d40:	e3403000 	movt	r3, #0
40011d44:	e5933000 	ldr	r3, [r3]
40011d48:	e1a00003 	mov	r0, r3
40011d4c:	e51b1008 	ldr	r1, [fp, #-8]
40011d50:	ebffff0a 	bl	40011980 <__bss_end+0x128c>
40011d54:	e3023094 	movw	r3, #8340	; 0x2094
40011d58:	e3403000 	movt	r3, #0
40011d5c:	e5933000 	ldr	r3, [r3]
40011d60:	e5932058 	ldr	r2, [r3, #88]	; 0x58
40011d64:	e51b3008 	ldr	r3, [fp, #-8]
40011d68:	e5933058 	ldr	r3, [r3, #88]	; 0x58
40011d6c:	e1520003 	cmp	r2, r3
40011d70:	2a000004 	bcs	40011d88 <__bss_end+0x1694>
40011d74:	e3023094 	movw	r3, #8340	; 0x2094
40011d78:	e3403000 	movt	r3, #0
40011d7c:	e5933000 	ldr	r3, [r3]
40011d80:	e3a02001 	mov	r2, #1
40011d84:	e5832054 	str	r2, [r3, #84]	; 0x54
40011d88:	e24bd004 	sub	sp, fp, #4
40011d8c:	e8bd8800 	pop	{fp, pc}
40011d90:	524d4149 	subpl	r4, sp, #1073741842	; 0x40000012
40011d94:	20544f4f 	subscs	r4, r4, pc, asr #30
40011d98:	5020534f 	eorpl	r5, r0, pc, asr #6
40011d9c:	454a4f52 	strbmi	r4, [sl, #-3922]	; 0xfffff0ae
40011da0:	32205443 	eorcc	r5, r0, #1124073472	; 0x43000000
40011da4:	21363130 	teqcs	r6, r0, lsr r1
40011da8:	00000a21 	andeq	r0, r0, r1, lsr #20
40011dac:	43503553 	cmpmi	r0, #348127232	; 0x14c00000
40011db0:	20303132 	eorscs	r3, r0, r2, lsr r1
40011db4:	20554d4d 	subscs	r4, r5, sp, asr #26
40011db8:	62616e45 	rsbvs	r6, r1, #1104	; 0x450
40011dbc:	5620656c 	strtpl	r6, [r0], -ip, ror #10
40011dc0:	73697265 	cmnvc	r9, #1342177286	; 0x50000006
40011dc4:	21216e6f 			; <UNDEFINED> instruction: 0x21216e6f
40011dc8:	0000000a 	andeq	r0, r0, sl
40011dcc:	70616843 	rsbvc	r6, r1, r3, asr #16
40011dd0:	20726574 	rsbscs	r6, r2, r4, ror r5
40011dd4:	315f3031 	cmpcc	pc, r1, lsr r0	; <UNPREDICTABLE>
40011dd8:	53203a20 			; <UNDEFINED> instruction: 0x53203a20
40011ddc:	5045454c 	subpl	r4, r5, ip, asr #10
40011de0:	572c4e4f 	strpl	r4, [ip, -pc, asr #28]!
40011de4:	55454b41 	strbpl	r4, [r5, #-2881]	; 0xfffff4bf
40011de8:	00000a50 	andeq	r0, r0, r0, asr sl
40011dec:	69616d6b 	stmdbvs	r1!, {r0, r1, r3, r5, r6, r8, sl, fp, sp, lr}^
40011df0:	003a206e 	eorseq	r2, sl, lr, rrx
40011df4:	3a205053 	bcc	40825f48 <_binary_task1_bin_end+0x813de4>
40011df8:	00000000 	andeq	r0, r0, r0
40011dfc:	3a204350 	bcc	40822b44 <_binary_task1_bin_end+0x8109e0>
40011e00:	00000000 	andeq	r0, r0, r0
40011e04:	706d754a 	rsbvc	r7, sp, sl, asr #10
40011e08:	206f5420 	rsbcs	r5, pc, r0, lsr #8
40011e0c:	6b736154 	blvs	41cea364 <_binary_task1_bin_end+0x1cd8200>
40011e10:	00000a30 	andeq	r0, r0, r0, lsr sl
40011e14:	74706d45 	ldrbtvc	r6, [r0], #-3397	; 0xfffff2bb
40011e18:	61482079 	hvcvs	33289	; 0x8209
40011e1c:	656c646e 	strbvs	r6, [ip, #-1134]!	; 0xfffffb92
40011e20:	0a212172 	beq	4085a3f0 <_binary_task1_bin_end+0x84828c>
	...

Disassembly of section .task0:

40011e28 <_binary_task0_bin_start>:
40011e28:	e52db004 	push	{fp}		; (str fp, [sp, #-4]!)
40011e2c:	e28db000 	add	fp, sp, #0
40011e30:	e24dd00c 	sub	sp, sp, #12
40011e34:	e50b0008 	str	r0, [fp, #-8]
40011e38:	eafffffe 	b	40011e38 <_binary_task0_bin_start+0x10>
40011e3c:	e52db004 	push	{fp}		; (str fp, [sp, #-4]!)
40011e40:	e28db000 	add	fp, sp, #0
40011e44:	e24dd014 	sub	sp, sp, #20
40011e48:	e1a03000 	mov	r3, r0
40011e4c:	e54b300d 	strb	r3, [fp, #-13]
40011e50:	e3a03000 	mov	r3, #0
40011e54:	e34f3380 	movt	r3, #62336	; 0xf380
40011e58:	e50b3008 	str	r3, [fp, #-8]
40011e5c:	e1a00000 	nop			; (mov r0, r0)
40011e60:	e51b3008 	ldr	r3, [fp, #-8]
40011e64:	e5933010 	ldr	r3, [r3, #16]
40011e68:	e2033002 	and	r3, r3, #2
40011e6c:	e3530000 	cmp	r3, #0
40011e70:	0afffffa 	beq	40011e60 <_binary_task0_bin_start+0x38>
40011e74:	e51b3008 	ldr	r3, [fp, #-8]
40011e78:	e55b200d 	ldrb	r2, [fp, #-13]
40011e7c:	e5c32020 	strb	r2, [r3, #32]
40011e80:	e24bd000 	sub	sp, fp, #0
40011e84:	e49db004 	pop	{fp}		; (ldr fp, [sp], #4)
40011e88:	e12fff1e 	bx	lr
40011e8c:	e92d4800 	push	{fp, lr}
40011e90:	e28db004 	add	fp, sp, #4
40011e94:	e24dd008 	sub	sp, sp, #8
40011e98:	e50b0008 	str	r0, [fp, #-8]
40011e9c:	ea000005 	b	40011eb8 <_binary_task0_bin_start+0x90>
40011ea0:	e51b3008 	ldr	r3, [fp, #-8]
40011ea4:	e2832001 	add	r2, r3, #1
40011ea8:	e50b2008 	str	r2, [fp, #-8]
40011eac:	e5d33000 	ldrb	r3, [r3]
40011eb0:	e1a00003 	mov	r0, r3
40011eb4:	ebffffe0 	bl	40011e3c <_binary_task0_bin_start+0x14>
40011eb8:	e51b3008 	ldr	r3, [fp, #-8]
40011ebc:	e5d33000 	ldrb	r3, [r3]
40011ec0:	e3530000 	cmp	r3, #0
40011ec4:	1afffff5 	bne	40011ea0 <_binary_task0_bin_start+0x78>
40011ec8:	e24bd004 	sub	sp, fp, #4
40011ecc:	e8bd8800 	pop	{fp, pc}
40011ed0:	e92d4800 	push	{fp, lr}
40011ed4:	e28db004 	add	fp, sp, #4
40011ed8:	e24dd020 	sub	sp, sp, #32
40011edc:	e50b0020 	str	r0, [fp, #-32]	; 0xffffffe0
40011ee0:	e3a03030 	mov	r3, #48	; 0x30
40011ee4:	e54b3018 	strb	r3, [fp, #-24]	; 0xffffffe8
40011ee8:	e3a03078 	mov	r3, #120	; 0x78
40011eec:	e54b3017 	strb	r3, [fp, #-23]	; 0xffffffe9
40011ef0:	e3a03007 	mov	r3, #7
40011ef4:	e50b300c 	str	r3, [fp, #-12]
40011ef8:	ea000019 	b	40011f64 <_binary_task0_bin_start+0x13c>
40011efc:	e51b300c 	ldr	r3, [fp, #-12]
40011f00:	e1a03103 	lsl	r3, r3, #2
40011f04:	e51b2020 	ldr	r2, [fp, #-32]	; 0xffffffe0
40011f08:	e1a03332 	lsr	r3, r2, r3
40011f0c:	e6ef3073 	uxtb	r3, r3
40011f10:	e203300f 	and	r3, r3, #15
40011f14:	e54b3005 	strb	r3, [fp, #-5]
40011f18:	e55b3005 	ldrb	r3, [fp, #-5]
40011f1c:	e3530009 	cmp	r3, #9
40011f20:	9a000003 	bls	40011f34 <_binary_task0_bin_start+0x10c>
40011f24:	e55b3005 	ldrb	r3, [fp, #-5]
40011f28:	e2833057 	add	r3, r3, #87	; 0x57
40011f2c:	e54b3005 	strb	r3, [fp, #-5]
40011f30:	ea000002 	b	40011f40 <_binary_task0_bin_start+0x118>
40011f34:	e55b3005 	ldrb	r3, [fp, #-5]
40011f38:	e2833030 	add	r3, r3, #48	; 0x30
40011f3c:	e54b3005 	strb	r3, [fp, #-5]
40011f40:	e51b300c 	ldr	r3, [fp, #-12]
40011f44:	e2633009 	rsb	r3, r3, #9
40011f48:	e24b2004 	sub	r2, fp, #4
40011f4c:	e0823003 	add	r3, r2, r3
40011f50:	e55b2005 	ldrb	r2, [fp, #-5]
40011f54:	e5432014 	strb	r2, [r3, #-20]	; 0xffffffec
40011f58:	e51b300c 	ldr	r3, [fp, #-12]
40011f5c:	e2433001 	sub	r3, r3, #1
40011f60:	e50b300c 	str	r3, [fp, #-12]
40011f64:	e51b300c 	ldr	r3, [fp, #-12]
40011f68:	e3530000 	cmp	r3, #0
40011f6c:	aaffffe2 	bge	40011efc <_binary_task0_bin_start+0xd4>
40011f70:	e3a03000 	mov	r3, #0
40011f74:	e54b300e 	strb	r3, [fp, #-14]
40011f78:	e24b3018 	sub	r3, fp, #24
40011f7c:	e1a00003 	mov	r0, r3
40011f80:	ebffffc1 	bl	40011e8c <_binary_task0_bin_start+0x64>
40011f84:	e24bd004 	sub	sp, fp, #4
40011f88:	e8bd8800 	pop	{fp, pc}
40011f8c:	e92d4800 	push	{fp, lr}
40011f90:	e28db004 	add	fp, sp, #4
40011f94:	e24dd008 	sub	sp, sp, #8
40011f98:	e50b0008 	str	r0, [fp, #-8]
40011f9c:	e51b0008 	ldr	r0, [fp, #-8]
40011fa0:	ebffffca 	bl	40011ed0 <_binary_task0_bin_start+0xa8>
40011fa4:	e3a0000a 	mov	r0, #10
40011fa8:	ebffffa3 	bl	40011e3c <_binary_task0_bin_start+0x14>
40011fac:	e24bd004 	sub	sp, fp, #4
40011fb0:	e8bd8800 	pop	{fp, pc}

Disassembly of section .task1:

40011fb4 <_binary_task1_bin_start>:
40011fb4:	e92d4800 	push	{fp, lr}
40011fb8:	e28db004 	add	fp, sp, #4
40011fbc:	e24dd010 	sub	sp, sp, #16
40011fc0:	e50b0010 	str	r0, [fp, #-16]
40011fc4:	e3a03000 	mov	r3, #0
40011fc8:	e50b3008 	str	r3, [fp, #-8]
40011fcc:	e3a03008 	mov	r3, #8
40011fd0:	e3403020 	movt	r3, #32
40011fd4:	e50b300c 	str	r3, [fp, #-12]
40011fd8:	e3a00040 	mov	r0, #64	; 0x40
40011fdc:	eb000002 	bl	40011fec <_binary_task1_bin_start+0x38>
40011fe0:	e51b0010 	ldr	r0, [fp, #-16]
40011fe4:	eb000054 	bl	4001213c <_binary_task1_bin_start+0x188>
40011fe8:	eafffffe 	b	40011fe8 <_binary_task1_bin_start+0x34>
40011fec:	e52db004 	push	{fp}		; (str fp, [sp, #-4]!)
40011ff0:	e28db000 	add	fp, sp, #0
40011ff4:	e24dd014 	sub	sp, sp, #20
40011ff8:	e1a03000 	mov	r3, r0
40011ffc:	e54b300d 	strb	r3, [fp, #-13]
40012000:	e3a03000 	mov	r3, #0
40012004:	e34f3380 	movt	r3, #62336	; 0xf380
40012008:	e50b3008 	str	r3, [fp, #-8]
4001200c:	e1a00000 	nop			; (mov r0, r0)
40012010:	e51b3008 	ldr	r3, [fp, #-8]
40012014:	e5933010 	ldr	r3, [r3, #16]
40012018:	e2033002 	and	r3, r3, #2
4001201c:	e3530000 	cmp	r3, #0
40012020:	0afffffa 	beq	40012010 <_binary_task1_bin_start+0x5c>
40012024:	e51b3008 	ldr	r3, [fp, #-8]
40012028:	e55b200d 	ldrb	r2, [fp, #-13]
4001202c:	e5c32020 	strb	r2, [r3, #32]
40012030:	e24bd000 	sub	sp, fp, #0
40012034:	e49db004 	pop	{fp}		; (ldr fp, [sp], #4)
40012038:	e12fff1e 	bx	lr
4001203c:	e92d4800 	push	{fp, lr}
40012040:	e28db004 	add	fp, sp, #4
40012044:	e24dd008 	sub	sp, sp, #8
40012048:	e50b0008 	str	r0, [fp, #-8]
4001204c:	ea000005 	b	40012068 <_binary_task1_bin_start+0xb4>
40012050:	e51b3008 	ldr	r3, [fp, #-8]
40012054:	e2832001 	add	r2, r3, #1
40012058:	e50b2008 	str	r2, [fp, #-8]
4001205c:	e5d33000 	ldrb	r3, [r3]
40012060:	e1a00003 	mov	r0, r3
40012064:	ebffffe0 	bl	40011fec <_binary_task1_bin_start+0x38>
40012068:	e51b3008 	ldr	r3, [fp, #-8]
4001206c:	e5d33000 	ldrb	r3, [r3]
40012070:	e3530000 	cmp	r3, #0
40012074:	1afffff5 	bne	40012050 <_binary_task1_bin_start+0x9c>
40012078:	e24bd004 	sub	sp, fp, #4
4001207c:	e8bd8800 	pop	{fp, pc}
40012080:	e92d4800 	push	{fp, lr}
40012084:	e28db004 	add	fp, sp, #4
40012088:	e24dd020 	sub	sp, sp, #32
4001208c:	e50b0020 	str	r0, [fp, #-32]	; 0xffffffe0
40012090:	e3a03030 	mov	r3, #48	; 0x30
40012094:	e54b3018 	strb	r3, [fp, #-24]	; 0xffffffe8
40012098:	e3a03078 	mov	r3, #120	; 0x78
4001209c:	e54b3017 	strb	r3, [fp, #-23]	; 0xffffffe9
400120a0:	e3a03007 	mov	r3, #7
400120a4:	e50b300c 	str	r3, [fp, #-12]
400120a8:	ea000019 	b	40012114 <_binary_task1_bin_start+0x160>
400120ac:	e51b300c 	ldr	r3, [fp, #-12]
400120b0:	e1a03103 	lsl	r3, r3, #2
400120b4:	e51b2020 	ldr	r2, [fp, #-32]	; 0xffffffe0
400120b8:	e1a03332 	lsr	r3, r2, r3
400120bc:	e6ef3073 	uxtb	r3, r3
400120c0:	e203300f 	and	r3, r3, #15
400120c4:	e54b3005 	strb	r3, [fp, #-5]
400120c8:	e55b3005 	ldrb	r3, [fp, #-5]
400120cc:	e3530009 	cmp	r3, #9
400120d0:	9a000003 	bls	400120e4 <_binary_task1_bin_start+0x130>
400120d4:	e55b3005 	ldrb	r3, [fp, #-5]
400120d8:	e2833057 	add	r3, r3, #87	; 0x57
400120dc:	e54b3005 	strb	r3, [fp, #-5]
400120e0:	ea000002 	b	400120f0 <_binary_task1_bin_start+0x13c>
400120e4:	e55b3005 	ldrb	r3, [fp, #-5]
400120e8:	e2833030 	add	r3, r3, #48	; 0x30
400120ec:	e54b3005 	strb	r3, [fp, #-5]
400120f0:	e51b300c 	ldr	r3, [fp, #-12]
400120f4:	e2633009 	rsb	r3, r3, #9
400120f8:	e24b2004 	sub	r2, fp, #4
400120fc:	e0823003 	add	r3, r2, r3
40012100:	e55b2005 	ldrb	r2, [fp, #-5]
40012104:	e5432014 	strb	r2, [r3, #-20]	; 0xffffffec
40012108:	e51b300c 	ldr	r3, [fp, #-12]
4001210c:	e2433001 	sub	r3, r3, #1
40012110:	e50b300c 	str	r3, [fp, #-12]
40012114:	e51b300c 	ldr	r3, [fp, #-12]
40012118:	e3530000 	cmp	r3, #0
4001211c:	aaffffe2 	bge	400120ac <_binary_task1_bin_start+0xf8>
40012120:	e3a03000 	mov	r3, #0
40012124:	e54b300e 	strb	r3, [fp, #-14]
40012128:	e24b3018 	sub	r3, fp, #24
4001212c:	e1a00003 	mov	r0, r3
40012130:	ebffffc1 	bl	4001203c <_binary_task1_bin_start+0x88>
40012134:	e24bd004 	sub	sp, fp, #4
40012138:	e8bd8800 	pop	{fp, pc}
4001213c:	e92d4800 	push	{fp, lr}
40012140:	e28db004 	add	fp, sp, #4
40012144:	e24dd008 	sub	sp, sp, #8
40012148:	e50b0008 	str	r0, [fp, #-8]
4001214c:	e51b0008 	ldr	r0, [fp, #-8]
40012150:	ebffffca 	bl	40012080 <_binary_task1_bin_start+0xcc>
40012154:	e3a0000a 	mov	r0, #10
40012158:	ebffffa3 	bl	40011fec <_binary_task1_bin_start+0x38>
4001215c:	e24bd004 	sub	sp, fp, #4
40012160:	e8bd8800 	pop	{fp, pc}

Disassembly of section .ARM.attributes:

00000000 <.ARM.attributes>:
   0:	00002641 	andeq	r2, r0, r1, asr #12
   4:	61656100 	cmnvs	r5, r0, lsl #2
   8:	01006962 	tsteq	r0, r2, ror #18
   c:	0000001c 	andeq	r0, r0, ip, lsl r0
  10:	726f4305 	rsbvc	r4, pc, #335544320	; 0x14000000
  14:	2d786574 	cfldr64cs	mvdx6, [r8, #-464]!	; 0xfffffe30
  18:	06003941 	streq	r3, [r0], -r1, asr #18
  1c:	0841070a 	stmdaeq	r1, {r1, r3, r8, r9, sl}^
  20:	2a020901 	bcs	8242c <_binary_cuteOS_bin_size+0x80cfb>
  24:	Address 0x0000000000000024 is out of bounds.

